(dp0
I0
(dp1
S'rep'
p2
(dp3
S'bias_neurons'
p4
(lp5
I3
asS'genes'
p6
(dp7
I0
(dp8
S'innov_no'
p9
I0
sS'ip'
p10
I0
sS'wt'
p11
F0.5421375281032954
sS'enabled'
p12
I01
sS'op'
p13
I2
ssI1
(dp14
g9
I1
sg10
I1
sg11
F-0.6507959548773226
sg12
I01
sg13
I2
ssI2
(dp15
g9
I2
sg10
I3
sg11
F0.7202551839194611
sg12
I01
sg13
I2
sssS'last_neuron'
p16
I3
sS'neurons'
p17
(dp18
I0
(dp19
S'type'
p20
cneat
Layer
p21
(I0
tp22
Rp23
sS'id'
p24
I0
ssI1
(dp25
g20
g23
sg24
I1
ssI2
(dp26
g20
g21
(I2
tp27
Rp28
sg24
I2
ssI3
(dp29
g20
g21
(I3
tp30
Rp31
sg24
I3
sssS'op_neurons'
p32
(lp33
I2
asS'fitness'
p34
F57.464759349823
sS'ip_neurons'
p35
(lp36
I0
aI1
asS'adj_fitness'
p37
F0.1589814339365278
ssS'prev_fitness'
p38
F16090.13261795044
sS'members'
p39
(lp40
(dp41
g4
(lp42
I3
asg6
(dp43
I0
(dp44
g9
I0
sg10
I0
sg11
F-0.16817038364357453
sg12
I01
sg13
I2
ssI1
(dp45
g9
I1
sg10
I1
sg11
F0.14280055600182046
sg12
I01
sg13
I2
ssI2
(dp46
g9
I2
sg10
I3
sg11
F0.29788038935943983
sg12
I01
sg13
I2
sssg16
I3
sg17
(dp47
I0
(dp48
g20
g23
sg24
I0
ssI1
(dp49
g20
g23
sg24
I1
ssI2
(dp50
g20
g28
sg24
I2
ssI3
(dp51
g20
g31
sg24
I3
sssg32
(lp52
I2
asg34
F78.82741928100586
sg35
(lp53
I0
aI1
asg37
F0.205231283392225
sa(dp54
g4
(lp55
I3
asg6
(dp56
I0
(dp57
g9
I0
sg10
I0
sg11
F-0.6490327471464223
sg12
I01
sg13
I2
ssI1
(dp58
g9
I1
sg10
I1
sg11
F-0.40675257539501275
sg12
I01
sg13
I2
ssI2
(dp59
g9
I2
sg10
I3
sg11
F0.5121274137702848
sg12
I01
sg13
I2
sssg16
I3
sg17
(dp60
I0
(dp61
g20
g23
sg24
I0
ssI1
(dp62
g20
g23
sg24
I1
ssI2
(dp63
g20
g28
sg24
I2
ssI3
(dp64
g20
g31
sg24
I3
sssg32
(lp65
I2
asg34
F78.82741928100586
sg35
(lp66
I0
aI1
asa(dp67
g4
(lp68
I3
asg6
(dp69
I0
(dp70
g9
I0
sg10
I0
sg11
F1.031457398557718
sg12
I01
sg13
I2
ssI1
(dp71
g9
I1
sg10
I1
sg11
F-0.5098298107901506
sg12
I01
sg13
I2
ssI2
(dp72
g9
I2
sg10
I3
sg11
F-0.7235550940955635
sg12
I01
sg13
I2
sssg16
I3
sg17
(dp73
I0
(dp74
g20
g23
sg24
I0
ssI1
(dp75
g20
g23
sg24
I1
ssI2
(dp76
g20
g28
sg24
I2
ssI3
(dp77
g20
g31
sg24
I3
sssg32
(lp78
I2
asg34
F78.82741928100586
sg35
(lp79
I0
aI1
asa(dp80
g4
g5
sg6
(dp81
I0
(dp82
g9
I0
sg10
I0
sg11
F0.5861655330782978
sg12
I01
sg13
I2
ssI1
(dp83
g9
I1
sg10
I1
sg11
F-0.3130432881473084
sg12
I01
sg13
I2
ssI2
(dp84
g9
I2
sg10
I3
sg11
F-0.2413519189095055
sg12
I01
sg13
I2
sssg16
I3
sg17
(dp85
I0
(dp86
g20
g23
sg24
I0
ssI1
(dp87
g20
g23
sg24
I1
ssI2
(dp88
g20
g28
sg24
I2
ssI3
(dp89
g20
g31
sg24
I3
sssg32
g33
sg34
F78.82741928100586
sg35
g36
sa(dp90
g4
(lp91
I3
asg6
(dp92
I0
(dp93
g9
I0
sg10
I0
sg11
F0.08284815033015595
sg12
I01
sg13
I2
ssI1
(dp94
g9
I1
sg10
I1
sg11
F0.27870622964021147
sg12
I01
sg13
I2
ssI2
(dp95
g9
I2
sg10
I3
sg11
F0.5958334449169536
sg12
I01
sg13
I2
sssg16
I3
sg17
(dp96
I0
(dp97
g20
g23
sg24
I0
ssI1
(dp98
g20
g23
sg24
I1
ssI2
(dp99
g20
g28
sg24
I2
ssI3
(dp100
g20
g31
sg24
I3
sssg32
(lp101
I2
asg34
F78.82741928100586
sg35
(lp102
I0
aI1
asa(dp103
g4
(lp104
I3
asg6
(dp105
I0
(dp106
g9
I0
sg10
I0
sg11
F-0.9539605279583995
sg12
I01
sg13
I2
ssI1
(dp107
g9
I1
sg10
I1
sg11
F-0.6341376359534322
sg12
I01
sg13
I2
ssI2
(dp108
g9
I2
sg10
I3
sg11
F-0.022108867194476006
sg12
I01
sg13
I2
sssg16
I3
sg17
(dp109
I0
(dp110
g20
g23
sg24
I0
ssI1
(dp111
g20
g23
sg24
I1
ssI2
(dp112
g20
g28
sg24
I2
ssI3
(dp113
g20
g31
sg24
I3
sssg32
(lp114
I2
asg34
F78.82741928100586
sg35
(lp115
I0
aI1
asa(dp116
g4
(lp117
I3
asg6
(dp118
I0
(dp119
g9
I0
sg10
I0
sg11
F-0.21801903097831177
sg12
I01
sg13
I2
ssI1
(dp120
g9
I1
sg10
I1
sg11
F-0.21096310026952503
sg12
I01
sg13
I2
ssI2
(dp121
g9
I2
sg10
I3
sg11
F-0.5702199605541585
sg12
I01
sg13
I2
sssg16
I3
sg17
(dp122
I0
(dp123
g20
g23
sg24
I0
ssI1
(dp124
g20
g23
sg24
I1
ssI2
(dp125
g20
g28
sg24
I2
ssI3
(dp126
g20
g31
sg24
I3
sssg32
(lp127
I2
asg34
F78.82741928100586
sg35
(lp128
I0
aI1
asa(dp129
g4
(lp130
I3
asg6
(dp131
I0
(dp132
g9
I0
sg10
I0
sg11
F-0.013900760212107718
sg12
I01
sg13
I2
ssI1
(dp133
g9
I1
sg10
I1
sg11
F0.06802708104166998
sg12
I01
sg13
I2
ssI2
(dp134
g9
I2
sg10
I3
sg11
F-1.0067950849527634
sg12
I01
sg13
I2
sssg16
I3
sg17
(dp135
I0
(dp136
g20
g23
sg24
I0
ssI1
(dp137
g20
g23
sg24
I1
ssI2
(dp138
g20
g28
sg24
I2
ssI3
(dp139
g20
g31
sg24
I3
sssg32
(lp140
I2
asg34
F78.82741928100586
sg35
(lp141
I0
aI1
asa(dp142
g4
g130
sg6
(dp143
I0
(dp144
g9
I0
sg10
I0
sg11
F0.746374495258585
sg12
I01
sg13
I2
ssI1
(dp145
g9
I1
sg10
I1
sg11
F0.05665906508193466
sg12
I01
sg13
I2
ssI2
(dp146
g9
I2
sg10
I3
sg11
F0.037693666649593845
sg12
I01
sg13
I2
sssg16
I3
sg17
(dp147
I0
(dp148
g20
g23
sg24
I0
ssI1
(dp149
g20
g23
sg24
I1
ssI2
(dp150
g20
g28
sg24
I2
ssI3
(dp151
g20
g31
sg24
I3
sssg32
g140
sg34
F78.82741928100586
sg35
g141
sa(dp152
g4
g55
sg6
(dp153
I0
(dp154
g9
I0
sg10
I0
sg11
F-0.7473759169173053
sg12
I01
sg13
I2
ssI1
(dp155
g9
I1
sg10
I1
sg11
F-0.0677241179518906
sg12
I01
sg13
I2
ssI2
(dp156
g9
I2
sg10
I3
sg11
F0.5854328113675734
sg12
I01
sg13
I2
sssg16
I3
sg17
(dp157
I0
(dp158
g20
g23
sg24
I0
ssI1
(dp159
g20
g23
sg24
I1
ssI2
(dp160
g20
g28
sg24
I2
ssI3
(dp161
g20
g31
sg24
I3
sssg32
g65
sg34
F78.82741928100586
sg35
g66
sa(dp162
g4
g130
sg6
(dp163
I0
(dp164
g9
I0
sg10
I0
sg11
F-0.01301702452239985
sg12
I01
sg13
I2
ssI1
(dp165
g9
I1
sg10
I1
sg11
F0.061949933056125756
sg12
I01
sg13
I2
ssI2
(dp166
g9
I2
sg10
I3
sg11
F-0.8901409172288359
sg12
I01
sg13
I2
sssg16
I3
sg17
(dp167
I0
(dp168
g20
g23
sg24
I0
ssI1
(dp169
g20
g23
sg24
I1
ssI2
(dp170
g20
g28
sg24
I2
ssI3
(dp171
g20
g31
sg24
I3
sssg32
g140
sg34
F78.82741928100586
sg35
g141
sa(dp172
g4
g42
sg6
(dp173
I0
(dp174
g9
I0
sg10
I0
sg11
F-0.1827637498716424
sg12
I01
sg13
I2
ssI1
(dp175
g9
I1
sg10
I1
sg11
F0.15035452404512206
sg12
I01
sg13
I2
ssI2
(dp176
g9
I2
sg10
I3
sg11
F0.3145687493410683
sg12
I01
sg13
I2
sssg16
I3
sg17
(dp177
I0
(dp178
g20
g23
sg24
I0
ssI1
(dp179
g20
g23
sg24
I1
ssI2
(dp180
g20
g28
sg24
I2
ssI3
(dp181
g20
g31
sg24
I3
sssg32
g52
sg34
F78.82741928100586
sg35
g53
sa(dp182
g4
(lp183
I3
asg6
(dp184
I0
(dp185
g9
I0
sg10
I0
sg11
F0.4119258633432063
sg12
I01
sg13
I2
ssI1
(dp186
g9
I1
sg10
I1
sg11
F0.7732006727858542
sg12
I01
sg13
I2
ssI2
(dp187
g9
I2
sg10
I3
sg11
F-0.8628360335776742
sg12
I01
sg13
I2
sssg16
I3
sg17
(dp188
I0
(dp189
g20
g23
sg24
I0
ssI1
(dp190
g20
g23
sg24
I1
ssI2
(dp191
g20
g28
sg24
I2
ssI3
(dp192
g20
g31
sg24
I3
sssg32
(lp193
I2
asg34
F78.82741928100586
sg35
(lp194
I0
aI1
asa(dp195
g4
(lp196
I3
asg6
(dp197
I0
(dp198
g9
I0
sg10
I0
sg11
F-0.6293589104712571
sg12
I01
sg13
I2
ssI1
(dp199
g9
I1
sg10
I1
sg11
F-0.04826969451952887
sg12
I01
sg13
I2
ssI2
(dp200
g9
I2
sg10
I3
sg11
F-0.26894168627743564
sg12
I01
sg13
I2
sssg16
I3
sg17
(dp201
I0
(dp202
g20
g23
sg24
I0
ssI1
(dp203
g20
g23
sg24
I1
ssI2
(dp204
g20
g28
sg24
I2
ssI3
(dp205
g20
g31
sg24
I3
sssg32
(lp206
I2
asg34
F78.82741928100586
sg35
(lp207
I0
aI1
asa(dp208
g4
(lp209
I3
asg6
(dp210
I0
(dp211
g9
I0
sg10
I0
sg11
F-0.20571682834898408
sg12
I01
sg13
I2
ssI1
(dp212
g9
I1
sg10
I1
sg11
F-0.18579260942946768
sg12
I01
sg13
I2
ssI2
(dp213
g9
I2
sg10
I3
sg11
F-0.2658533077422051
sg12
I01
sg13
I2
sssg16
I3
sg17
(dp214
I0
(dp215
g20
g23
sg24
I0
ssI1
(dp216
g20
g23
sg24
I1
ssI2
(dp217
g20
g28
sg24
I2
ssI3
(dp218
g20
g31
sg24
I3
sssg32
(lp219
I2
asg34
F78.82741928100586
sg35
(lp220
I0
aI1
asa(dp221
g4
(lp222
I3
asg6
(dp223
I0
(dp224
g9
I0
sg10
I0
sg11
F-0.5975224997238787
sg12
I01
sg13
I2
ssI1
(dp225
g9
I1
sg10
I1
sg11
F0.048513548253707905
sg12
I01
sg13
I2
ssI2
(dp226
g9
I2
sg10
I3
sg11
F0.33796755124587263
sg12
I01
sg13
I2
sssg16
I3
sg17
(dp227
I0
(dp228
g20
g23
sg24
I0
ssI1
(dp229
g20
g23
sg24
I1
ssI2
(dp230
g20
g28
sg24
I2
ssI3
(dp231
g20
g31
sg24
I3
sssg32
(lp232
I2
asg34
F78.82741928100586
sg35
(lp233
I0
aI1
asa(dp234
g4
(lp235
I3
asg6
(dp236
I0
(dp237
g9
I0
sg10
I0
sg11
F-0.3572193963402827
sg12
I01
sg13
I2
ssI1
(dp238
g9
I1
sg10
I1
sg11
F-0.442753584826243
sg12
I01
sg13
I2
ssI2
(dp239
g9
I2
sg10
I3
sg11
F0.4610037875215369
sg12
I01
sg13
I2
sssg16
I3
sg17
(dp240
I0
(dp241
g20
g23
sg24
I0
ssI1
(dp242
g20
g23
sg24
I1
ssI2
(dp243
g20
g28
sg24
I2
ssI3
(dp244
g20
g31
sg24
I3
sssg32
(lp245
I2
asg34
F78.82741928100586
sg35
(lp246
I0
aI1
asa(dp247
g4
g130
sg6
(dp248
I0
(dp249
g9
I0
sg10
I0
sg11
F-0.012817079964656449
sg12
I01
sg13
I2
ssI1
(dp250
g9
I1
sg10
I1
sg11
F0.06212777194828675
sg12
I01
sg13
I2
ssI2
(dp251
g9
I2
sg10
I3
sg11
F-1.0457806279140918
sg12
I01
sg13
I2
sssg16
I3
sg17
(dp252
I0
(dp253
g20
g23
sg24
I0
ssI1
(dp254
g20
g23
sg24
I1
ssI2
(dp255
g20
g28
sg24
I2
ssI3
(dp256
g20
g31
sg24
I3
sssg32
g140
sg34
F78.82741928100586
sg35
g141
sa(dp257
g4
g222
sg6
(dp258
I0
(dp259
g9
I0
sg10
I0
sg11
F-0.7050779725668295
sg12
I01
sg13
I2
ssI1
(dp260
g9
I1
sg10
I1
sg11
F0.04913815590577335
sg12
I01
sg13
I2
ssI2
(dp261
g9
I2
sg10
I3
sg11
F0.38527309192176595
sg12
I01
sg13
I2
sssg16
I3
sg17
(dp262
I0
(dp263
g20
g23
sg24
I0
ssI1
(dp264
g20
g23
sg24
I1
ssI2
(dp265
g20
g28
sg24
I2
ssI3
(dp266
g20
g31
sg24
I3
sssg32
g232
sg34
F78.82741928100586
sg35
g233
sa(dp267
g4
(lp268
I3
asg6
(dp269
I0
(dp270
g9
I0
sg10
I0
sg11
F0.7380472032045838
sg12
I01
sg13
I2
ssI1
(dp271
g9
I1
sg10
I1
sg11
F-0.5074173593538368
sg12
I01
sg13
I2
ssI2
(dp272
g9
I2
sg10
I3
sg11
F0.49773511291088673
sg12
I01
sg13
I2
sssg16
I3
sg17
(dp273
I0
(dp274
g20
g23
sg24
I0
ssI1
(dp275
g20
g23
sg24
I1
ssI2
(dp276
g20
g28
sg24
I2
ssI3
(dp277
g20
g31
sg24
I3
sssg32
(lp278
I2
asg34
F78.82741928100586
sg35
(lp279
I0
aI1
asa(dp280
g4
g130
sg6
(dp281
I0
(dp282
g9
I0
sg10
I0
sg11
F-0.6699223267688792
sg12
I01
sg13
I2
ssI1
(dp283
g9
I1
sg10
I1
sg11
F0.06948908305565682
sg12
I01
sg13
I2
ssI2
(dp284
g9
I2
sg10
I3
sg11
F-0.8677974547187106
sg12
I01
sg13
I2
sssg16
I3
sg17
(dp285
I0
(dp286
g20
g23
sg24
I0
ssI1
(dp287
g20
g23
sg24
I1
ssI2
(dp288
g20
g28
sg24
I2
ssI3
(dp289
g20
g31
sg24
I3
sssg32
g140
sg34
F78.82741928100586
sg35
g141
sa(dp290
g4
(lp291
I3
asg6
(dp292
I0
(dp293
g9
I0
sg10
I0
sg11
F0.6198381258456324
sg12
I01
sg13
I2
ssI1
(dp294
g9
I1
sg10
I1
sg11
F0.6396657592063462
sg12
I01
sg13
I2
ssI2
(dp295
g9
I2
sg10
I3
sg11
F0.04595777596782067
sg12
I01
sg13
I2
sssg16
I3
sg17
(dp296
I0
(dp297
g20
g23
sg24
I0
ssI1
(dp298
g20
g23
sg24
I1
ssI2
(dp299
g20
g28
sg24
I2
ssI3
(dp300
g20
g31
sg24
I3
sssg32
(lp301
I2
asg34
F78.82741928100586
sg35
(lp302
I0
aI1
asa(dp303
g4
g68
sg6
(dp304
I0
(dp305
g9
I0
sg10
I0
sg11
F1.0269331997949056
sg12
I01
sg13
I2
ssI1
(dp306
g9
I1
sg10
I1
sg11
F-0.5437529067711631
sg12
I01
sg13
I2
ssI2
(dp307
g9
I2
sg10
I3
sg11
F-0.7370477021227618
sg12
I01
sg13
I2
sssg16
I3
sg17
(dp308
I0
(dp309
g20
g23
sg24
I0
ssI1
(dp310
g20
g23
sg24
I1
ssI2
(dp311
g20
g28
sg24
I2
ssI3
(dp312
g20
g31
sg24
I3
sssg32
g78
sg34
F78.82741928100586
sg35
g79
sa(dp313
g4
g268
sg6
(dp314
I0
(dp315
g9
I0
sg10
I0
sg11
F0.6954710415818045
sg12
I01
sg13
I2
ssI1
(dp316
g9
I1
sg10
I1
sg11
F-0.4729958971423854
sg12
I01
sg13
I2
ssI2
(dp317
g9
I2
sg10
I3
sg11
F0.4761634527419425
sg12
I01
sg13
I2
sssg16
I3
sg17
(dp318
I0
(dp319
g20
g23
sg24
I0
ssI1
(dp320
g20
g23
sg24
I1
ssI2
(dp321
g20
g28
sg24
I2
ssI3
(dp322
g20
g31
sg24
I3
sssg32
g278
sg34
F78.82741928100586
sg35
g279
sa(dp323
g4
g183
sg6
(dp324
I0
(dp325
g9
I0
sg10
I0
sg11
F0.41489611968485757
sg12
I01
sg13
I2
ssI1
(dp326
g9
I1
sg10
I1
sg11
F0.8853627655077388
sg12
I01
sg13
I2
ssI2
(dp327
g9
I2
sg10
I3
sg11
F-1.0328699062365283
sg12
I01
sg13
I2
sssg16
I3
sg17
(dp328
I0
(dp329
g20
g23
sg24
I0
ssI1
(dp330
g20
g23
sg24
I1
ssI2
(dp331
g20
g28
sg24
I2
ssI3
(dp332
g20
g31
sg24
I3
sssg32
g193
sg34
F78.82741928100586
sg35
g194
sa(dp333
g4
g5
sg6
(dp334
I0
(dp335
g9
I0
sg10
I0
sg11
F0.5169568661393023
sg12
I01
sg13
I2
ssI1
(dp336
g9
I1
sg10
I1
sg11
F-0.5997880538038164
sg12
I01
sg13
I2
ssI2
(dp337
g9
I2
sg10
I3
sg11
F-0.2682057547771033
sg12
I01
sg13
I2
sssg16
I3
sg17
(dp338
I0
(dp339
g20
g23
sg24
I0
ssI1
(dp340
g20
g23
sg24
I1
ssI2
(dp341
g20
g28
sg24
I2
ssI3
(dp342
g20
g31
sg24
I3
sssg32
g33
sg34
F78.82741928100586
sg35
g36
sa(dp343
g4
g42
sg6
(dp344
I0
(dp345
g9
I0
sg10
I0
sg11
F-0.15540218248213952
sg12
I01
sg13
I2
ssI1
(dp346
g9
I1
sg10
I1
sg11
F0.1466602842606554
sg12
I01
sg13
I2
ssI2
(dp347
g9
I2
sg10
I3
sg11
F0.29425433120609495
sg12
I01
sg13
I2
sssg16
I3
sg17
(dp348
I0
(dp349
g20
g23
sg24
I0
ssI1
(dp350
g20
g23
sg24
I1
ssI2
(dp351
g20
g28
sg24
I2
ssI3
(dp352
g20
g31
sg24
I3
sssg32
g52
sg34
F78.82741928100586
sg35
g53
sa(dp353
g4
g291
sg6
(dp354
I0
(dp355
g9
I0
sg10
I0
sg11
F0.6449622131391506
sg12
I01
sg13
I2
ssI1
(dp356
g9
I1
sg10
I1
sg11
F0.6322997680437433
sg12
I01
sg13
I2
ssI2
(dp357
g9
I2
sg10
I3
sg11
F0.048760892251514476
sg12
I01
sg13
I2
sssg16
I3
sg17
(dp358
I0
(dp359
g20
g23
sg24
I0
ssI1
(dp360
g20
g23
sg24
I1
ssI2
(dp361
g20
g28
sg24
I2
ssI3
(dp362
g20
g31
sg24
I3
sssg32
g301
sg34
F78.82741928100586
sg35
g302
sa(dp363
g4
g235
sg6
(dp364
I0
(dp365
g9
I0
sg10
I0
sg11
F-0.36967167329295575
sg12
I01
sg13
I2
ssI1
(dp366
g9
I1
sg10
I1
sg11
F-0.46335406603039286
sg12
I01
sg13
I2
ssI2
(dp367
g9
I2
sg10
I3
sg11
F0.4276534142641161
sg12
I01
sg13
I2
sssg16
I3
sg17
(dp368
I0
(dp369
g20
g23
sg24
I0
ssI1
(dp370
g20
g23
sg24
I1
ssI2
(dp371
g20
g28
sg24
I2
ssI3
(dp372
g20
g31
sg24
I3
sssg32
g245
sg34
F78.82741928100586
sg35
g246
sa(dp373
g4
g209
sg6
(dp374
I0
(dp375
g9
I0
sg10
I0
sg11
F-0.2426670838051667
sg12
I01
sg13
I2
ssI1
(dp376
g9
I1
sg10
I1
sg11
F-0.21276404991779194
sg12
I01
sg13
I2
ssI2
(dp377
g9
I2
sg10
I3
sg11
F-0.25647463371344165
sg12
I01
sg13
I2
sssg16
I3
sg17
(dp378
I0
(dp379
g20
g23
sg24
I0
ssI1
(dp380
g20
g23
sg24
I1
ssI2
(dp381
g20
g28
sg24
I2
ssI3
(dp382
g20
g31
sg24
I3
sssg32
g219
sg34
F78.82741928100586
sg35
g220
sa(dp383
g4
(lp384
I3
asg6
(dp385
I0
(dp386
g9
I0
sg10
I0
sg11
F-0.6217003485198249
sg12
I01
sg13
I2
ssI1
(dp387
g9
I1
sg10
I1
sg11
F0.4716703042442034
sg12
I01
sg13
I2
ssI2
(dp388
g9
I2
sg10
I3
sg11
F-0.6339016208586429
sg12
I01
sg13
I2
sssg16
I3
sg17
(dp389
I0
(dp390
g20
g23
sg24
I0
ssI1
(dp391
g20
g23
sg24
I1
ssI2
(dp392
g20
g28
sg24
I2
ssI3
(dp393
g20
g31
sg24
I3
sssg32
(lp394
I2
asg34
F78.82741928100586
sg35
(lp395
I0
aI1
asa(dp396
g4
g268
sg6
(dp397
I0
(dp398
g9
I0
sg10
I0
sg11
F0.6576939924186109
sg12
I01
sg13
I2
ssI1
(dp399
g9
I1
sg10
I1
sg11
F-0.48983018370827663
sg12
I01
sg13
I2
ssI2
(dp400
g9
I2
sg10
I3
sg11
F0.4401084660272218
sg12
I01
sg13
I2
sssg16
I3
sg17
(dp401
I0
(dp402
g20
g23
sg24
I0
ssI1
(dp403
g20
g23
sg24
I1
ssI2
(dp404
g20
g28
sg24
I2
ssI3
(dp405
g20
g31
sg24
I3
sssg32
g278
sg34
F78.82741928100586
sg35
g279
sa(dp406
g4
(lp407
I3
asg6
(dp408
I0
(dp409
g9
I0
sg10
I0
sg11
F0.6850408347976251
sg12
I01
sg13
I2
ssI1
(dp410
g9
I1
sg10
I1
sg11
F-0.020290030078219834
sg12
I01
sg13
I2
ssI2
(dp411
g9
I2
sg10
I3
sg11
F-0.3481871302851087
sg12
I01
sg13
I2
sssg16
I3
sg17
(dp412
I0
(dp413
g20
g23
sg24
I0
ssI1
(dp414
g20
g23
sg24
I1
ssI2
(dp415
g20
g28
sg24
I2
ssI3
(dp416
g20
g31
sg24
I3
sssg32
(lp417
I2
asg34
F78.82741928100586
sg35
(lp418
I0
aI1
asa(dp419
g4
(lp420
I3
asg6
(dp421
I0
(dp422
g9
I0
sg10
I0
sg11
F-0.47426269221146045
sg12
I01
sg13
I2
ssI1
(dp423
g9
I1
sg10
I1
sg11
F-0.7959122552321997
sg12
I01
sg13
I2
ssI2
(dp424
g9
I2
sg10
I3
sg11
F0.3484824822458177
sg12
I01
sg13
I2
sssg16
I3
sg17
(dp425
I0
(dp426
g20
g23
sg24
I0
ssI1
(dp427
g20
g23
sg24
I1
ssI2
(dp428
g20
g28
sg24
I2
ssI3
(dp429
g20
g31
sg24
I3
sssg32
(lp430
I2
asg34
F78.82741928100586
sg35
(lp431
I0
aI1
asa(dp432
g4
g291
sg6
(dp433
I0
(dp434
g9
I0
sg10
I0
sg11
F0.6969166387239455
sg12
I01
sg13
I2
ssI1
(dp435
g9
I1
sg10
I1
sg11
F0.5310133304105327
sg12
I01
sg13
I2
ssI2
(dp436
g9
I2
sg10
I3
sg11
F0.899020828958746
sg12
I01
sg13
I2
sssg16
I3
sg17
(dp437
I0
(dp438
g20
g23
sg24
I0
ssI1
(dp439
g20
g23
sg24
I1
ssI2
(dp440
g20
g28
sg24
I2
ssI3
(dp441
g20
g31
sg24
I3
sssg32
g301
sg34
F78.82741928100586
sg35
g302
sa(dp442
g4
(lp443
I3
asg6
(dp444
I0
(dp445
g9
I0
sg10
I0
sg11
F0.6659391141898559
sg12
I01
sg13
I2
ssI1
(dp446
g9
I1
sg10
I1
sg11
F-0.7733564687203733
sg12
I01
sg13
I2
ssI2
(dp447
g9
I2
sg10
I3
sg11
F-0.8448318455601818
sg12
I01
sg13
I2
sssg16
I3
sg17
(dp448
I0
(dp449
g20
g23
sg24
I0
ssI1
(dp450
g20
g23
sg24
I1
ssI2
(dp451
g20
g28
sg24
I2
ssI3
(dp452
g20
g31
sg24
I3
sssg32
(lp453
I2
asg34
F78.82741928100586
sg35
(lp454
I0
aI1
asa(dp455
g4
(lp456
I3
asg6
(dp457
I0
(dp458
g9
I0
sg10
I0
sg11
F-0.05646221399529816
sg12
I01
sg13
I2
ssI1
(dp459
g9
I1
sg10
I1
sg11
F0.45622020711749933
sg12
I01
sg13
I2
ssI2
(dp460
g9
I2
sg10
I3
sg11
F-0.2858075933599862
sg12
I01
sg13
I2
sssg16
I3
sg17
(dp461
I0
(dp462
g20
g23
sg24
I0
ssI1
(dp463
g20
g23
sg24
I1
ssI2
(dp464
g20
g28
sg24
I2
ssI3
(dp465
g20
g31
sg24
I3
sssg32
(lp466
I2
asg34
F78.82741928100586
sg35
(lp467
I0
aI1
asa(dp468
g4
(lp469
I3
asg6
(dp470
I0
(dp471
g9
I0
sg10
I0
sg11
F-0.3401417789048691
sg12
I01
sg13
I2
ssI1
(dp472
g9
I1
sg10
I1
sg11
F-0.4246328201556749
sg12
I01
sg13
I2
ssI2
(dp473
g9
I2
sg10
I3
sg11
F-0.7084467340673464
sg12
I01
sg13
I2
sssg16
I3
sg17
(dp474
I0
(dp475
g20
g23
sg24
I0
ssI1
(dp476
g20
g23
sg24
I1
ssI2
(dp477
g20
g28
sg24
I2
ssI3
(dp478
g20
g31
sg24
I3
sssg32
(lp479
I2
asg34
F78.82741928100586
sg35
(lp480
I0
aI1
asa(dp481
g4
(lp482
I3
asg6
(dp483
I0
(dp484
g9
I0
sg10
I0
sg11
F-0.36249096549194465
sg12
I01
sg13
I2
ssI1
(dp485
g9
I1
sg10
I1
sg11
F0.6066459451220317
sg12
I01
sg13
I2
ssI2
(dp486
g9
I2
sg10
I3
sg11
F0.5360110742467721
sg12
I01
sg13
I2
sssg16
I3
sg17
(dp487
I0
(dp488
g20
g23
sg24
I0
ssI1
(dp489
g20
g23
sg24
I1
ssI2
(dp490
g20
g28
sg24
I2
ssI3
(dp491
g20
g31
sg24
I3
sssg32
(lp492
I2
asg34
F78.82741928100586
sg35
(lp493
I0
aI1
asa(dp494
g4
(lp495
I3
asg6
(dp496
I0
(dp497
g9
I0
sg10
I0
sg11
F-0.6118100658872563
sg12
I01
sg13
I2
ssI1
(dp498
g9
I1
sg10
I1
sg11
F-0.5370790023531168
sg12
I01
sg13
I2
ssI2
(dp499
g9
I2
sg10
I3
sg11
F0.5802199282867894
sg12
I01
sg13
I2
sssg16
I3
sg17
(dp500
I0
(dp501
g20
g23
sg24
I0
ssI1
(dp502
g20
g23
sg24
I1
ssI2
(dp503
g20
g28
sg24
I2
ssI3
(dp504
g20
g31
sg24
I3
sssg32
(lp505
I2
asg34
F78.82741928100586
sg35
(lp506
I0
aI1
asa(dp507
g4
g384
sg6
(dp508
I0
(dp509
g9
I0
sg10
I0
sg11
F-0.06335980351142087
sg12
I01
sg13
I2
ssI1
(dp510
g9
I1
sg10
I1
sg11
F0.3278304160640848
sg12
I01
sg13
I2
ssI2
(dp511
g9
I2
sg10
I3
sg11
F0.5754456265583581
sg12
I01
sg13
I2
sssg16
I3
sg17
(dp512
I0
(dp513
g20
g23
sg24
I0
ssI1
(dp514
g20
g23
sg24
I1
ssI2
(dp515
g20
g28
sg24
I2
ssI3
(dp516
g20
g31
sg24
I3
sssg32
g394
sg34
F78.82741928100586
sg35
g395
sa(dp517
g4
(lp518
I3
asg6
(dp519
I0
(dp520
g9
I0
sg10
I0
sg11
F0.9845059312326773
sg12
I01
sg13
I2
ssI1
(dp521
g9
I1
sg10
I1
sg11
F-0.714248850131486
sg12
I01
sg13
I2
ssI2
(dp522
g9
I2
sg10
I3
sg11
F0.10749775012509204
sg12
I01
sg13
I2
sssg16
I3
sg17
(dp523
I0
(dp524
g20
g23
sg24
I0
ssI1
(dp525
g20
g23
sg24
I1
ssI2
(dp526
g20
g28
sg24
I2
ssI3
(dp527
g20
g31
sg24
I3
sssg32
(lp528
I2
asg34
F78.82741928100586
sg35
(lp529
I0
aI1
asa(dp530
g4
(lp531
I3
asg6
(dp532
I0
(dp533
g9
I0
sg10
I0
sg11
F-0.3535185728641147
sg12
I01
sg13
I2
ssI1
(dp534
g9
I1
sg10
I1
sg11
F0.6781012783015659
sg12
I01
sg13
I2
ssI2
(dp535
g9
I2
sg10
I3
sg11
F0.8664761088080959
sg12
I01
sg13
I2
sssg16
I3
sg17
(dp536
I0
(dp537
g20
g23
sg24
I0
ssI1
(dp538
g20
g23
sg24
I1
ssI2
(dp539
g20
g28
sg24
I2
ssI3
(dp540
g20
g31
sg24
I3
sssg32
(lp541
I2
asg34
F78.82741928100586
sg35
(lp542
I0
aI1
asa(dp543
g4
(lp544
I3
asg6
(dp545
I0
(dp546
g9
I0
sg10
I0
sg11
F0.686905152903371
sg12
I01
sg13
I2
ssI1
(dp547
g9
I1
sg10
I1
sg11
F-0.6423378532198367
sg12
I01
sg13
I2
ssI2
(dp548
g9
I2
sg10
I3
sg11
F-0.47076533859245207
sg12
I01
sg13
I2
sssg16
I3
sg17
(dp549
I0
(dp550
g20
g23
sg24
I0
ssI1
(dp551
g20
g23
sg24
I1
ssI2
(dp552
g20
g28
sg24
I2
ssI3
(dp553
g20
g31
sg24
I3
sssg32
(lp554
I2
asg34
F78.82741928100586
sg35
(lp555
I0
aI1
asa(dp556
g4
(lp557
I3
asg6
(dp558
I0
(dp559
g9
I0
sg10
I0
sg11
F0.36876540193721663
sg12
I01
sg13
I2
ssI1
(dp560
g9
I1
sg10
I1
sg11
F0.5026471709282129
sg12
I01
sg13
I2
ssI2
(dp561
g9
I2
sg10
I3
sg11
F-0.07294230518542459
sg12
I01
sg13
I2
sssg16
I3
sg17
(dp562
I0
(dp563
g20
g23
sg24
I0
ssI1
(dp564
g20
g23
sg24
I1
ssI2
(dp565
g20
g28
sg24
I2
ssI3
(dp566
g20
g31
sg24
I3
sssg32
(lp567
I2
asg34
F78.82741928100586
sg35
(lp568
I0
aI1
asa(dp569
g4
g117
sg6
(dp570
I0
(dp571
g9
I0
sg10
I0
sg11
F-0.22949217931264848
sg12
I01
sg13
I2
ssI1
(dp572
g9
I1
sg10
I1
sg11
F-0.2501509558860071
sg12
I00
sg13
I2
ssI2
(dp573
g9
I2
sg10
I3
sg11
F-0.22441466415434946
sg12
I01
sg13
I2
ssI29
(dp574
g9
I29
sg10
I1
sg11
F0.9006386042393458
sg12
I01
sg13
I4
ssI30
(dp575
g9
I30
sg10
I4
sg11
F-0.2730875414882075
sg12
I01
sg13
I2
sssg16
I4
sg17
(dp576
I0
(dp577
g20
g23
sg24
I0
ssI1
(dp578
g20
g23
sg24
I1
ssI2
(dp579
g20
g28
sg24
I2
ssI3
(dp580
g20
g31
sg24
I3
ssI4
(dp581
g20
g21
(I1
tp582
Rp583
sg24
I4
sssg32
g127
sg34
F78.82741928100586
sg35
g128
sa(dp584
g4
(lp585
I3
asg6
(dp586
I0
(dp587
g9
I0
sg10
I0
sg11
F0.48237214479624124
sg12
I01
sg13
I2
ssI1
(dp588
g9
I1
sg10
I1
sg11
F-0.48865551772673466
sg12
I01
sg13
I2
ssI2
(dp589
g9
I2
sg10
I3
sg11
F0.11327174823858172
sg12
I01
sg13
I2
sssg16
I3
sg17
(dp590
I0
(dp591
g20
g23
sg24
I0
ssI1
(dp592
g20
g23
sg24
I1
ssI2
(dp593
g20
g28
sg24
I2
ssI3
(dp594
g20
g31
sg24
I3
sssg32
(lp595
I2
asg34
F78.82741928100586
sg35
(lp596
I0
aI1
asa(dp597
g4
g518
sg6
(dp598
I0
(dp599
g9
I0
sg10
I0
sg11
F-0.23821720110446007
sg12
I01
sg13
I2
ssI1
(dp600
g9
I1
sg10
I1
sg11
F0.7954087848123946
sg12
I01
sg13
I2
ssI2
(dp601
g9
I2
sg10
I3
sg11
F-0.5145533429360629
sg12
I01
sg13
I2
sssg16
I3
sg17
(dp602
I0
(dp603
g20
g23
sg24
I0
ssI1
(dp604
g20
g23
sg24
I1
ssI2
(dp605
g20
g28
sg24
I2
ssI3
(dp606
g20
g31
sg24
I3
sssg32
g528
sg34
F78.82741928100586
sg35
g529
sa(dp607
g4
(lp608
I3
asg6
(dp609
I0
(dp610
g9
I0
sg10
I0
sg11
F-0.7509547185482729
sg12
I01
sg13
I2
ssI1
(dp611
g9
I1
sg10
I1
sg11
F0.5682780373149012
sg12
I01
sg13
I2
ssI2
(dp612
g9
I2
sg10
I3
sg11
F0.03477361508381425
sg12
I01
sg13
I2
sssg16
I3
sg17
(dp613
I0
(dp614
g20
g23
sg24
I0
ssI1
(dp615
g20
g23
sg24
I1
ssI2
(dp616
g20
g28
sg24
I2
ssI3
(dp617
g20
g31
sg24
I3
sssg32
(lp618
I2
asg34
F78.82741928100586
sg35
(lp619
I0
aI1
asa(dp620
g4
(lp621
I3
asg6
(dp622
I0
(dp623
g9
I0
sg10
I0
sg11
F-0.01122860915455204
sg12
I01
sg13
I2
ssI1
(dp624
g9
I1
sg10
I1
sg11
F0.8358434234432236
sg12
I01
sg13
I2
ssI2
(dp625
g9
I2
sg10
I3
sg11
F0.6625417456626022
sg12
I01
sg13
I2
sssg16
I3
sg17
(dp626
I0
(dp627
g20
g23
sg24
I0
ssI1
(dp628
g20
g23
sg24
I1
ssI2
(dp629
g20
g28
sg24
I2
ssI3
(dp630
g20
g31
sg24
I3
sssg32
(lp631
I2
asg34
F78.82741928100586
sg35
(lp632
I0
aI1
asa(dp633
g4
g291
sg6
(dp634
I0
(dp635
g9
I0
sg10
I0
sg11
F0.6657165908611117
sg12
I01
sg13
I2
ssI1
(dp636
g9
I1
sg10
I1
sg11
F0.6712149751078741
sg12
I01
sg13
I2
ssI2
(dp637
g9
I2
sg10
I3
sg11
F0.04918710420970987
sg12
I01
sg13
I2
sssg16
I3
sg17
(dp638
I0
(dp639
g20
g23
sg24
I0
ssI1
(dp640
g20
g23
sg24
I1
ssI2
(dp641
g20
g28
sg24
I2
ssI3
(dp642
g20
g31
sg24
I3
sssg32
g301
sg34
F78.82741928100586
sg35
g302
sa(dp643
g4
g443
sg6
(dp644
I0
(dp645
g9
I0
sg10
I0
sg11
F0.6424502672579283
sg12
I01
sg13
I2
ssI1
(dp646
g9
I1
sg10
I1
sg11
F-0.9202929136955822
sg12
I01
sg13
I2
ssI2
(dp647
g9
I2
sg10
I3
sg11
F0.9648726294202925
sg12
I01
sg13
I2
sssg16
I3
sg17
(dp648
I0
(dp649
g20
g23
sg24
I0
ssI1
(dp650
g20
g23
sg24
I1
ssI2
(dp651
g20
g28
sg24
I2
ssI3
(dp652
g20
g31
sg24
I3
sssg32
g453
sg34
F78.82741928100586
sg35
g454
sa(dp653
g4
(lp654
I3
asg6
(dp655
I0
(dp656
g9
I0
sg10
I0
sg11
F0.7510869390482335
sg12
I01
sg13
I2
ssI1
(dp657
g9
I1
sg10
I1
sg11
F-0.590984222363351
sg12
I01
sg13
I2
ssI2
(dp658
g9
I2
sg10
I3
sg11
F-0.5182397862527355
sg12
I01
sg13
I2
sssg16
I3
sg17
(dp659
I0
(dp660
g20
g23
sg24
I0
ssI1
(dp661
g20
g23
sg24
I1
ssI2
(dp662
g20
g28
sg24
I2
ssI3
(dp663
g20
g31
sg24
I3
sssg32
(lp664
I2
asg34
F78.82741928100586
sg35
(lp665
I0
aI1
asa(dp666
g4
(lp667
I3
asg6
(dp668
I0
(dp669
g9
I0
sg10
I0
sg11
F0.15433436004547185
sg12
I01
sg13
I2
ssI1
(dp670
g9
I1
sg10
I1
sg11
F0.9020169884939723
sg12
I01
sg13
I2
ssI2
(dp671
g9
I2
sg10
I3
sg11
F-0.8914002248885058
sg12
I01
sg13
I2
sssg16
I3
sg17
(dp672
I0
(dp673
g20
g23
sg24
I0
ssI1
(dp674
g20
g23
sg24
I1
ssI2
(dp675
g20
g28
sg24
I2
ssI3
(dp676
g20
g31
sg24
I3
sssg32
(lp677
I2
asg34
F78.82741928100586
sg35
(lp678
I0
aI1
asa(dp679
g4
g235
sg6
(dp680
I0
(dp681
g9
I0
sg10
I0
sg11
F-0.5216440827959044
sg12
I01
sg13
I2
ssI1
(dp682
g9
I1
sg10
I1
sg11
F0.6234098829139204
sg12
I01
sg13
I2
ssI2
(dp683
g9
I2
sg10
I3
sg11
F0.38812630039320273
sg12
I01
sg13
I2
sssg16
I3
sg17
(dp684
I0
(dp685
g20
g23
sg24
I0
ssI1
(dp686
g20
g23
sg24
I1
ssI2
(dp687
g20
g28
sg24
I2
ssI3
(dp688
g20
g31
sg24
I3
sssg32
g245
sg34
F78.82741928100586
sg35
g246
sa(dp689
g4
(lp690
I3
asg6
(dp691
I0
(dp692
g9
I0
sg10
I0
sg11
F-0.2451390564549762
sg12
I01
sg13
I2
ssI1
(dp693
g9
I1
sg10
I1
sg11
F-0.7760761815707586
sg12
I01
sg13
I2
ssI2
(dp694
g9
I2
sg10
I3
sg11
F0.522620788831527
sg12
I01
sg13
I2
sssg16
I3
sg17
(dp695
I0
(dp696
g20
g23
sg24
I0
ssI1
(dp697
g20
g23
sg24
I1
ssI2
(dp698
g20
g28
sg24
I2
ssI3
(dp699
g20
g31
sg24
I3
sssg32
(lp700
I2
asg34
F78.82741928100586
sg35
(lp701
I0
aI1
asa(dp702
g4
g531
sg6
(dp703
I0
(dp704
g9
I0
sg10
I0
sg11
F0.5517601591680857
sg12
I01
sg13
I2
ssI1
(dp705
g9
I1
sg10
I1
sg11
F0.8013019787092177
sg12
I01
sg13
I2
ssI2
(dp706
g9
I2
sg10
I3
sg11
F-0.0061367517152846945
sg12
I01
sg13
I2
sssg16
I3
sg17
(dp707
I0
(dp708
g20
g23
sg24
I0
ssI1
(dp709
g20
g23
sg24
I1
ssI2
(dp710
g20
g28
sg24
I2
ssI3
(dp711
g20
g31
sg24
I3
sssg32
g541
sg34
F78.82741928100586
sg35
g542
sa(dp712
g4
(lp713
I3
asg6
(dp714
I0
(dp715
g9
I0
sg10
I0
sg11
F0.15207233422772462
sg12
I01
sg13
I2
ssI1
(dp716
g9
I1
sg10
I1
sg11
F0.5505702902987872
sg12
I01
sg13
I2
ssI2
(dp717
g9
I2
sg10
I3
sg11
F-0.545789161644106
sg12
I01
sg13
I2
sssg16
I3
sg17
(dp718
I0
(dp719
g20
g23
sg24
I0
ssI1
(dp720
g20
g23
sg24
I1
ssI2
(dp721
g20
g28
sg24
I2
ssI3
(dp722
g20
g31
sg24
I3
sssg32
(lp723
I2
asg34
F78.82741928100586
sg35
(lp724
I0
aI1
asa(dp725
g4
(lp726
I3
asg6
(dp727
I0
(dp728
g9
I0
sg10
I0
sg11
F-0.20981789096269662
sg12
I01
sg13
I2
ssI1
(dp729
g9
I1
sg10
I1
sg11
F-0.48765282359710677
sg12
I01
sg13
I2
ssI2
(dp730
g9
I2
sg10
I3
sg11
F-0.8029305163939323
sg12
I01
sg13
I2
sssg16
I3
sg17
(dp731
I0
(dp732
g20
g23
sg24
I0
ssI1
(dp733
g20
g23
sg24
I1
ssI2
(dp734
g20
g28
sg24
I2
ssI3
(dp735
g20
g31
sg24
I3
sssg32
(lp736
I2
asg34
F78.82741928100586
sg35
(lp737
I0
aI1
asa(dp738
g4
(lp739
I3
asg6
(dp740
I0
(dp741
g9
I0
sg10
I0
sg11
F-0.32651608632829426
sg12
I01
sg13
I2
ssI1
(dp742
g9
I1
sg10
I1
sg11
F0.18847055464900142
sg12
I01
sg13
I2
ssI2
(dp743
g9
I2
sg10
I3
sg11
F0.03012658146467509
sg12
I01
sg13
I2
sssg16
I3
sg17
(dp744
I0
(dp745
g20
g23
sg24
I0
ssI1
(dp746
g20
g23
sg24
I1
ssI2
(dp747
g20
g28
sg24
I2
ssI3
(dp748
g20
g31
sg24
I3
sssg32
(lp749
I2
asg34
F78.82741928100586
sg35
(lp750
I0
aI1
asa(dp751
g4
(lp752
I3
asg6
(dp753
I0
(dp754
g9
I0
sg10
I0
sg11
F0.29057546252631206
sg12
I01
sg13
I2
ssI1
(dp755
g9
I1
sg10
I1
sg11
F0.7046640468456496
sg12
I01
sg13
I2
ssI2
(dp756
g9
I2
sg10
I3
sg11
F-0.03386475818634237
sg12
I00
sg13
I2
ssI13
(dp757
g9
I13
sg10
I3
sg11
F1.2597025508772768
sg12
I01
sg13
I4
ssI14
(dp758
g9
I14
sg10
I4
sg11
F-0.03392125084495738
sg12
I01
sg13
I2
sssg16
I4
sg17
(dp759
I0
(dp760
g20
g23
sg24
I0
ssI1
(dp761
g20
g23
sg24
I1
ssI2
(dp762
g20
g28
sg24
I2
ssI3
(dp763
g20
g31
sg24
I3
ssI4
(dp764
g20
g583
sg24
I4
sssg32
(lp765
I2
asg34
F78.82741928100586
sg35
(lp766
I0
aI1
asa(dp767
g4
(lp768
I3
asg6
(dp769
I0
(dp770
g9
I0
sg10
I0
sg11
F1.0475305399490251
sg12
I01
sg13
I2
ssI1
(dp771
g9
I1
sg10
I1
sg11
F0.05606403809820224
sg12
I01
sg13
I2
ssI2
(dp772
g9
I2
sg10
I3
sg11
F0.5412369730806086
sg12
I01
sg13
I2
sssg16
I3
sg17
(dp773
I0
(dp774
g20
g23
sg24
I0
ssI1
(dp775
g20
g23
sg24
I1
ssI2
(dp776
g20
g28
sg24
I2
ssI3
(dp777
g20
g31
sg24
I3
sssg32
(lp778
I2
asg34
F78.82741928100586
sg35
(lp779
I0
aI1
asa(dp780
g4
(lp781
I3
asg6
(dp782
I0
(dp783
g9
I0
sg10
I0
sg11
F-0.3031837374239878
sg12
I01
sg13
I2
ssI1
(dp784
g9
I1
sg10
I1
sg11
F-0.06257256905904197
sg12
I01
sg13
I2
ssI2
(dp785
g9
I2
sg10
I3
sg11
F0.49981779346349864
sg12
I01
sg13
I2
sssg16
I3
sg17
(dp786
I0
(dp787
g20
g23
sg24
I0
ssI1
(dp788
g20
g23
sg24
I1
ssI2
(dp789
g20
g28
sg24
I2
ssI3
(dp790
g20
g31
sg24
I3
sssg32
(lp791
I2
asg34
F78.82741928100586
sg35
(lp792
I0
aI1
asa(dp793
g4
g183
sg6
(dp794
I0
(dp795
g9
I0
sg10
I0
sg11
F0.5710633954247847
sg12
I01
sg13
I2
ssI1
(dp796
g9
I1
sg10
I1
sg11
F0.7457647925783905
sg12
I01
sg13
I2
ssI2
(dp797
g9
I2
sg10
I3
sg11
F-0.8155578963187632
sg12
I01
sg13
I2
sssg16
I3
sg17
(dp798
I0
(dp799
g20
g23
sg24
I0
ssI1
(dp800
g20
g23
sg24
I1
ssI2
(dp801
g20
g28
sg24
I2
ssI3
(dp802
g20
g31
sg24
I3
sssg32
g193
sg34
F78.82741928100586
sg35
g194
sa(dp803
g4
g291
sg6
(dp804
I0
(dp805
g9
I0
sg10
I0
sg11
F0.7255474599381496
sg12
I01
sg13
I2
ssI1
(dp806
g9
I1
sg10
I1
sg11
F0.1549325841678789
sg12
I01
sg13
I2
ssI2
(dp807
g9
I2
sg10
I3
sg11
F0.2693832565238001
sg12
I01
sg13
I2
sssg16
I3
sg17
(dp808
I0
(dp809
g20
g23
sg24
I0
ssI1
(dp810
g20
g23
sg24
I1
ssI2
(dp811
g20
g28
sg24
I2
ssI3
(dp812
g20
g31
sg24
I3
sssg32
g301
sg34
F78.82741928100586
sg35
g302
sa(dp813
g4
g384
sg6
(dp814
I0
(dp815
g9
I0
sg10
I0
sg11
F-0.9589474947392065
sg12
I01
sg13
I2
ssI1
(dp816
g9
I1
sg10
I1
sg11
F0.44965161948996
sg12
I01
sg13
I2
ssI2
(dp817
g9
I2
sg10
I3
sg11
F0.5778606895847045
sg12
I01
sg13
I2
sssg16
I3
sg17
(dp818
I0
(dp819
g20
g23
sg24
I0
ssI1
(dp820
g20
g23
sg24
I1
ssI2
(dp821
g20
g28
sg24
I2
ssI3
(dp822
g20
g31
sg24
I3
sssg32
g394
sg34
F78.82741928100586
sg35
g395
sa(dp823
g4
g585
sg6
(dp824
I0
(dp825
g9
I0
sg10
I0
sg11
F-0.8902779239377306
sg12
I01
sg13
I2
ssI1
(dp826
g9
I1
sg10
I1
sg11
F-0.5818571241109074
sg12
I01
sg13
I2
ssI2
(dp827
g9
I2
sg10
I3
sg11
F0.11827136895651888
sg12
I01
sg13
I2
ssI27
(dp828
g9
I27
sg10
I0
sg11
F0.9952280579334012
sg12
I01
sg13
I4
ssI28
(dp829
g9
I28
sg10
I4
sg11
F-0.8611866947941168
sg12
I01
sg13
I2
sssg16
I4
sg17
(dp830
I0
(dp831
g20
g23
sg24
I0
ssI1
(dp832
g20
g23
sg24
I1
ssI2
(dp833
g20
g28
sg24
I2
ssI3
(dp834
g20
g31
sg24
I3
ssI4
(dp835
g20
g583
sg24
I4
sssg32
g595
sg34
F78.82741928100586
sg35
g596
sa(dp836
g4
(lp837
I3
asg6
(dp838
I0
(dp839
g9
I0
sg10
I0
sg11
F-0.35820800220597815
sg12
I01
sg13
I2
ssI1
(dp840
g9
I1
sg10
I1
sg11
F-0.5702842164488408
sg12
I01
sg13
I2
ssI2
(dp841
g9
I2
sg10
I3
sg11
F-0.19399951327425177
sg12
I01
sg13
I2
sssg16
I3
sg17
(dp842
I0
(dp843
g20
g23
sg24
I0
ssI1
(dp844
g20
g23
sg24
I1
ssI2
(dp845
g20
g28
sg24
I2
ssI3
(dp846
g20
g31
sg24
I3
sssg32
(lp847
I2
asg34
F78.82741928100586
sg35
(lp848
I0
aI1
asa(dp849
g4
g235
sg6
(dp850
I0
(dp851
g9
I0
sg10
I0
sg11
F0.9486756219132054
sg12
I01
sg13
I2
ssI1
(dp852
g9
I1
sg10
I1
sg11
F-0.20372533197117315
sg12
I01
sg13
I2
ssI2
(dp853
g9
I2
sg10
I3
sg11
F-1.0110148998717303
sg12
I01
sg13
I2
sssg16
I3
sg17
(dp854
I0
(dp855
g20
g23
sg24
I0
ssI1
(dp856
g20
g23
sg24
I1
ssI2
(dp857
g20
g28
sg24
I2
ssI3
(dp858
g20
g31
sg24
I3
sssg32
g245
sg34
F78.82741928100586
sg35
g246
sa(dp859
g4
g557
sg6
(dp860
I0
(dp861
g9
I0
sg10
I0
sg11
F0.15020439605824737
sg12
I01
sg13
I2
ssI1
(dp862
g9
I1
sg10
I1
sg11
F-0.0751232324555547
sg12
I01
sg13
I2
ssI2
(dp863
g9
I2
sg10
I3
sg11
F-0.3264851683074224
sg12
I01
sg13
I2
sssg16
I3
sg17
(dp864
I0
(dp865
g20
g23
sg24
I0
ssI1
(dp866
g20
g23
sg24
I1
ssI2
(dp867
g20
g28
sg24
I2
ssI3
(dp868
g20
g31
sg24
I3
sssg32
g567
sg34
F78.82741928100586
sg35
g568
sa(dp869
g4
(lp870
I3
asg6
(dp871
I0
(dp872
g9
I0
sg10
I0
sg11
F-0.3501421146041117
sg12
I01
sg13
I2
ssI1
(dp873
g9
I1
sg10
I1
sg11
F0.19259095709352408
sg12
I01
sg13
I2
ssI2
(dp874
g9
I2
sg10
I3
sg11
F-0.15996063927137902
sg12
I01
sg13
I2
sssg16
I3
sg17
(dp875
I0
(dp876
g20
g23
sg24
I0
ssI1
(dp877
g20
g23
sg24
I1
ssI2
(dp878
g20
g28
sg24
I2
ssI3
(dp879
g20
g31
sg24
I3
sssg32
(lp880
I2
asg34
F78.82741928100586
sg35
(lp881
I0
aI1
asa(dp882
g4
g55
sg6
(dp883
I0
(dp884
g9
I0
sg10
I0
sg11
F-0.6961541673579702
sg12
I01
sg13
I2
ssI1
(dp885
g9
I1
sg10
I1
sg11
F-0.41303489934003695
sg12
I01
sg13
I2
ssI2
(dp886
g9
I2
sg10
I3
sg11
F0.5916558785285885
sg12
I01
sg13
I2
sssg16
I3
sg17
(dp887
I0
(dp888
g20
g23
sg24
I0
ssI1
(dp889
g20
g23
sg24
I1
ssI2
(dp890
g20
g28
sg24
I2
ssI3
(dp891
g20
g31
sg24
I3
sssg32
g65
sg34
F78.82741928100586
sg35
g66
sa(dp892
g4
(lp893
I3
asg6
(dp894
I0
(dp895
g9
I0
sg10
I0
sg11
F-0.2226439142631721
sg12
I01
sg13
I2
ssI1
(dp896
g9
I1
sg10
I1
sg11
F0.6072669579450857
sg12
I01
sg13
I2
ssI2
(dp897
g9
I2
sg10
I3
sg11
F-0.8128172413750043
sg12
I01
sg13
I2
sssg16
I3
sg17
(dp898
I0
(dp899
g20
g23
sg24
I0
ssI1
(dp900
g20
g23
sg24
I1
ssI2
(dp901
g20
g28
sg24
I2
ssI3
(dp902
g20
g31
sg24
I3
sssg32
(lp903
I2
asg34
F78.82741928100586
sg35
(lp904
I0
aI1
asa(dp905
g4
g781
sg6
(dp906
I0
(dp907
g9
I0
sg10
I0
sg11
F0.9434725723325417
sg12
I01
sg13
I2
ssI1
(dp908
g9
I1
sg10
I1
sg11
F-0.5071636013325931
sg12
I01
sg13
I2
ssI2
(dp909
g9
I2
sg10
I3
sg11
F-0.6876797450187065
sg12
I01
sg13
I2
sssg16
I3
sg17
(dp910
I0
(dp911
g20
g23
sg24
I0
ssI1
(dp912
g20
g23
sg24
I1
ssI2
(dp913
g20
g28
sg24
I2
ssI3
(dp914
g20
g31
sg24
I3
sssg32
g791
sg34
F78.82741928100586
sg35
g792
sa(dp915
g4
g268
sg6
(dp916
I0
(dp917
g9
I0
sg10
I0
sg11
F0.684884374196649
sg12
I01
sg13
I2
ssI1
(dp918
g9
I1
sg10
I1
sg11
F0.8567657179540841
sg12
I01
sg13
I2
ssI2
(dp919
g9
I2
sg10
I3
sg11
F0.4843260872402492
sg12
I01
sg13
I2
sssg16
I3
sg17
(dp920
I0
(dp921
g20
g23
sg24
I0
ssI1
(dp922
g20
g23
sg24
I1
ssI2
(dp923
g20
g28
sg24
I2
ssI3
(dp924
g20
g31
sg24
I3
sssg32
g278
sg34
F78.82741928100586
sg35
g279
sa(dp925
g4
g469
sg6
(dp926
I0
(dp927
g9
I0
sg10
I0
sg11
F-0.32592405329744933
sg12
I01
sg13
I2
ssI1
(dp928
g9
I1
sg10
I1
sg11
F-0.15954703464454928
sg12
I01
sg13
I2
ssI2
(dp929
g9
I2
sg10
I3
sg11
F-0.7091630469829672
sg12
I01
sg13
I2
sssg16
I3
sg17
(dp930
I0
(dp931
g20
g23
sg24
I0
ssI1
(dp932
g20
g23
sg24
I1
ssI2
(dp933
g20
g28
sg24
I2
ssI3
(dp934
g20
g31
sg24
I3
sssg32
g479
sg34
F78.82741928100586
sg35
g480
sa(dp935
g4
g531
sg6
(dp936
I0
(dp937
g9
I0
sg10
I0
sg11
F0.3632613264489104
sg12
I01
sg13
I2
ssI1
(dp938
g9
I1
sg10
I1
sg11
F0.5325833457629774
sg12
I01
sg13
I2
ssI2
(dp939
g9
I2
sg10
I3
sg11
F0.02725270846474282
sg12
I01
sg13
I2
sssg16
I3
sg17
(dp940
I0
(dp941
g20
g23
sg24
I0
ssI1
(dp942
g20
g23
sg24
I1
ssI2
(dp943
g20
g28
sg24
I2
ssI3
(dp944
g20
g31
sg24
I3
sssg32
g541
sg34
F78.82741928100586
sg35
g542
sa(dp945
g4
g781
sg6
(dp946
I0
(dp947
g9
I0
sg10
I0
sg11
F-0.25475719997670826
sg12
I01
sg13
I2
ssI1
(dp948
g9
I1
sg10
I1
sg11
F-0.2683568152458325
sg12
I01
sg13
I2
ssI2
(dp949
g9
I2
sg10
I3
sg11
F-0.5229508297139442
sg12
I01
sg13
I2
sssg16
I3
sg17
(dp950
I0
(dp951
g20
g23
sg24
I0
ssI1
(dp952
g20
g23
sg24
I1
ssI2
(dp953
g20
g28
sg24
I2
ssI3
(dp954
g20
g31
sg24
I3
sssg32
g791
sg34
F78.82741928100586
sg35
g792
sa(dp955
g4
(lp956
I3
asg6
(dp957
I0
(dp958
g9
I0
sg10
I0
sg11
F0.9584339463592886
sg12
I01
sg13
I2
ssI1
(dp959
g9
I1
sg10
I1
sg11
F-0.7428537212007318
sg12
I01
sg13
I2
ssI2
(dp960
g9
I2
sg10
I3
sg11
F-0.8781781708132131
sg12
I01
sg13
I2
sssg16
I3
sg17
(dp961
I0
(dp962
g20
g23
sg24
I0
ssI1
(dp963
g20
g23
sg24
I1
ssI2
(dp964
g20
g28
sg24
I2
ssI3
(dp965
g20
g31
sg24
I3
sssg32
(lp966
I2
asg34
F78.82741928100586
sg35
(lp967
I0
aI1
asa(dp968
g4
g291
sg6
(dp969
I0
(dp970
g9
I0
sg10
I0
sg11
F1.072190302188127
sg12
I01
sg13
I2
ssI1
(dp971
g9
I1
sg10
I1
sg11
F0.5909810125831706
sg12
I01
sg13
I2
ssI2
(dp972
g9
I2
sg10
I3
sg11
F0.6370768608665672
sg12
I01
sg13
I2
sssg16
I3
sg17
(dp973
I0
(dp974
g20
g23
sg24
I0
ssI1
(dp975
g20
g23
sg24
I1
ssI2
(dp976
g20
g28
sg24
I2
ssI3
(dp977
g20
g31
sg24
I3
sssg32
g301
sg34
F78.82741928100586
sg35
g302
sa(dp978
g4
(lp979
I3
asg6
(dp980
I0
(dp981
g9
I0
sg10
I0
sg11
F-0.20710689918647307
sg12
I01
sg13
I2
ssI1
(dp982
g9
I1
sg10
I1
sg11
F0.4292883928968727
sg12
I01
sg13
I2
ssI2
(dp983
g9
I2
sg10
I3
sg11
F-0.2283124382726701
sg12
I01
sg13
I2
sssg16
I3
sg17
(dp984
I0
(dp985
g20
g23
sg24
I0
ssI1
(dp986
g20
g23
sg24
I1
ssI2
(dp987
g20
g28
sg24
I2
ssI3
(dp988
g20
g31
sg24
I3
sssg32
(lp989
I2
asg34
F78.82741928100586
sg35
(lp990
I0
aI1
asa(dp991
g4
g667
sg6
(dp992
I0
(dp993
g9
I0
sg10
I0
sg11
F0.15816008605838391
sg12
I01
sg13
I2
ssI1
(dp994
g9
I1
sg10
I1
sg11
F0.8744140307471071
sg12
I01
sg13
I2
ssI2
(dp995
g9
I2
sg10
I3
sg11
F0.2824324912924348
sg12
I01
sg13
I2
sssg16
I3
sg17
(dp996
I0
(dp997
g20
g23
sg24
I0
ssI1
(dp998
g20
g23
sg24
I1
ssI2
(dp999
g20
g28
sg24
I2
ssI3
(dp1000
g20
g31
sg24
I3
sssg32
g677
sg34
F78.82741928100586
sg35
g678
sa(dp1001
g4
g456
sg6
(dp1002
I0
(dp1003
g9
I0
sg10
I0
sg11
F-0.4918419591187868
sg12
I01
sg13
I2
ssI1
(dp1004
g9
I1
sg10
I1
sg11
F0.5830668140312296
sg12
I01
sg13
I2
ssI2
(dp1005
g9
I2
sg10
I3
sg11
F-0.3833755427562296
sg12
I01
sg13
I2
sssg16
I3
sg17
(dp1006
I0
(dp1007
g20
g23
sg24
I0
ssI1
(dp1008
g20
g23
sg24
I1
ssI2
(dp1009
g20
g28
sg24
I2
ssI3
(dp1010
g20
g31
sg24
I3
sssg32
g466
sg34
F78.82741928100586
sg35
g467
sa(dp1011
g4
(lp1012
I3
asg6
(dp1013
I0
(dp1014
g9
I0
sg10
I0
sg11
F-0.012736093847041646
sg12
I01
sg13
I2
ssI1
(dp1015
g9
I1
sg10
I1
sg11
F0.48884475259430854
sg12
I01
sg13
I2
ssI2
(dp1016
g9
I2
sg10
I3
sg11
F0.599380752976088
sg12
I01
sg13
I2
sssg16
I3
sg17
(dp1017
I0
(dp1018
g20
g23
sg24
I0
ssI1
(dp1019
g20
g23
sg24
I1
ssI2
(dp1020
g20
g28
sg24
I2
ssI3
(dp1021
g20
g31
sg24
I3
sssg32
(lp1022
I2
asg34
F78.82741928100586
sg35
(lp1023
I0
aI1
asa(dp1024
g4
(lp1025
I3
asg6
(dp1026
I0
(dp1027
g9
I0
sg10
I0
sg11
F-0.3371368640816156
sg12
I01
sg13
I2
ssI1
(dp1028
g9
I1
sg10
I1
sg11
F0.6580163658466375
sg12
I01
sg13
I2
ssI2
(dp1029
g9
I2
sg10
I3
sg11
F0.05898017132936473
sg12
I01
sg13
I2
sssg16
I3
sg17
(dp1030
I0
(dp1031
g20
g23
sg24
I0
ssI1
(dp1032
g20
g23
sg24
I1
ssI2
(dp1033
g20
g28
sg24
I2
ssI3
(dp1034
g20
g31
sg24
I3
sssg32
(lp1035
I2
asg34
F78.82741928100586
sg35
(lp1036
I0
aI1
asa(dp1037
g4
g443
sg6
(dp1038
I0
(dp1039
g9
I0
sg10
I0
sg11
F-0.8543936773407924
sg12
I01
sg13
I2
ssI1
(dp1040
g9
I1
sg10
I1
sg11
F0.4060876659988302
sg12
I01
sg13
I2
ssI2
(dp1041
g9
I2
sg10
I3
sg11
F0.969096454177557
sg12
I01
sg13
I2
sssg16
I3
sg17
(dp1042
I0
(dp1043
g20
g23
sg24
I0
ssI1
(dp1044
g20
g23
sg24
I1
ssI2
(dp1045
g20
g28
sg24
I2
ssI3
(dp1046
g20
g31
sg24
I3
sssg32
g453
sg34
F78.82741928100586
sg35
g454
sa(dp1047
g4
g608
sg6
(dp1048
I0
(dp1049
g9
I0
sg10
I0
sg11
F-0.7903799101308588
sg12
I01
sg13
I2
ssI1
(dp1050
g9
I1
sg10
I1
sg11
F0.5841984535160092
sg12
I01
sg13
I2
ssI2
(dp1051
g9
I2
sg10
I3
sg11
F0.6812985687770753
sg12
I01
sg13
I2
sssg16
I3
sg17
(dp1052
I0
(dp1053
g20
g23
sg24
I0
ssI1
(dp1054
g20
g23
sg24
I1
ssI2
(dp1055
g20
g28
sg24
I2
ssI3
(dp1056
g20
g31
sg24
I3
sssg32
g618
sg34
F78.82741928100586
sg35
g619
sa(dp1057
g4
(lp1058
I3
asg6
(dp1059
I0
(dp1060
g9
I0
sg10
I0
sg11
F0.6199332438851588
sg12
I01
sg13
I2
ssI1
(dp1061
g9
I1
sg10
I1
sg11
F-0.8109578543039635
sg12
I01
sg13
I2
ssI2
(dp1062
g9
I2
sg10
I3
sg11
F0.6333947113262834
sg12
I01
sg13
I2
sssg16
I3
sg17
(dp1063
I0
(dp1064
g20
g23
sg24
I0
ssI1
(dp1065
g20
g23
sg24
I1
ssI2
(dp1066
g20
g28
sg24
I2
ssI3
(dp1067
g20
g31
sg24
I3
sssg32
(lp1068
I2
asg34
F78.82741928100586
sg35
(lp1069
I0
aI1
asa(dp1070
g4
(lp1071
I3
asg6
(dp1072
I0
(dp1073
g9
I0
sg10
I0
sg11
F0.03391995541218757
sg12
I01
sg13
I2
ssI1
(dp1074
g9
I1
sg10
I1
sg11
F0.2258377271444912
sg12
I01
sg13
I2
ssI2
(dp1075
g9
I2
sg10
I3
sg11
F-0.5099515696906336
sg12
I01
sg13
I2
sssg16
I3
sg17
(dp1076
I0
(dp1077
g20
g23
sg24
I0
ssI1
(dp1078
g20
g23
sg24
I1
ssI2
(dp1079
g20
g28
sg24
I2
ssI3
(dp1080
g20
g31
sg24
I3
sssg32
(lp1081
I2
asg34
F78.82741928100586
sg35
(lp1082
I0
aI1
asa(dp1083
g4
g956
sg6
(dp1084
I0
(dp1085
g9
I0
sg10
I0
sg11
F0.5209641637105722
sg12
I01
sg13
I2
ssI1
(dp1086
g9
I1
sg10
I1
sg11
F0.3967291288866579
sg12
I01
sg13
I2
ssI2
(dp1087
g9
I2
sg10
I3
sg11
F-0.27340534900459695
sg12
I01
sg13
I2
sssg16
I3
sg17
(dp1088
I0
(dp1089
g20
g23
sg24
I0
ssI1
(dp1090
g20
g23
sg24
I1
ssI2
(dp1091
g20
g28
sg24
I2
ssI3
(dp1092
g20
g31
sg24
I3
sssg32
g966
sg34
F78.82741928100586
sg35
g967
sa(dp1093
g4
g91
sg6
(dp1094
I0
(dp1095
g9
I0
sg10
I0
sg11
F-0.5735521696799679
sg12
I01
sg13
I2
ssI1
(dp1096
g9
I1
sg10
I1
sg11
F0.6129862152918604
sg12
I01
sg13
I2
ssI2
(dp1097
g9
I2
sg10
I3
sg11
F-0.5381568372831186
sg12
I01
sg13
I2
sssg16
I3
sg17
(dp1098
I0
(dp1099
g20
g23
sg24
I0
ssI1
(dp1100
g20
g23
sg24
I1
ssI2
(dp1101
g20
g28
sg24
I2
ssI3
(dp1102
g20
g31
sg24
I3
sssg32
g101
sg34
F78.82741928100586
sg35
g102
sa(dp1103
g4
(lp1104
I3
asg6
(dp1105
I0
(dp1106
g9
I0
sg10
I0
sg11
F-0.493858383095094
sg12
I01
sg13
I2
ssI1
(dp1107
g9
I1
sg10
I1
sg11
F0.6946126261937736
sg12
I01
sg13
I2
ssI2
(dp1108
g9
I2
sg10
I3
sg11
F0.657049575429489
sg12
I01
sg13
I2
sssg16
I3
sg17
(dp1109
I0
(dp1110
g20
g23
sg24
I0
ssI1
(dp1111
g20
g23
sg24
I1
ssI2
(dp1112
g20
g28
sg24
I2
ssI3
(dp1113
g20
g31
sg24
I3
sssg32
(lp1114
I2
asg34
F78.82741928100586
sg35
(lp1115
I0
aI1
asa(dp1116
g4
(lp1117
I3
asg6
(dp1118
I0
(dp1119
g9
I0
sg10
I0
sg11
F0.5519609069245616
sg12
I01
sg13
I2
ssI1
(dp1120
g9
I1
sg10
I1
sg11
F-0.8212095059826585
sg12
I01
sg13
I2
ssI2
(dp1121
g9
I2
sg10
I3
sg11
F0.13205950726324875
sg12
I01
sg13
I2
sssg16
I3
sg17
(dp1122
I0
(dp1123
g20
g23
sg24
I0
ssI1
(dp1124
g20
g23
sg24
I1
ssI2
(dp1125
g20
g28
sg24
I2
ssI3
(dp1126
g20
g31
sg24
I3
sssg32
(lp1127
I2
asg34
F78.82741928100586
sg35
(lp1128
I0
aI1
asa(dp1129
g4
(lp1130
I3
asg6
(dp1131
I0
(dp1132
g9
I0
sg10
I0
sg11
F-0.5574655254769599
sg12
I01
sg13
I2
ssI1
(dp1133
g9
I1
sg10
I1
sg11
F0.6692492623901626
sg12
I01
sg13
I2
ssI2
(dp1134
g9
I2
sg10
I3
sg11
F-0.7845878127462841
sg12
I01
sg13
I2
sssg16
I3
sg17
(dp1135
I0
(dp1136
g20
g23
sg24
I0
ssI1
(dp1137
g20
g23
sg24
I1
ssI2
(dp1138
g20
g28
sg24
I2
ssI3
(dp1139
g20
g31
sg24
I3
sssg32
(lp1140
I2
asg34
F78.82741928100586
sg35
(lp1141
I0
aI1
asa(dp1142
g4
(lp1143
I3
asg6
(dp1144
I0
(dp1145
g9
I0
sg10
I0
sg11
F0.21236786082524203
sg12
I01
sg13
I2
ssI1
(dp1146
g9
I1
sg10
I1
sg11
F-0.7990432740712569
sg12
I00
sg13
I2
ssI2
(dp1147
g9
I2
sg10
I3
sg11
F-0.23015268393152594
sg12
I01
sg13
I2
ssI32
(dp1148
g9
I32
sg10
I4
sg11
F-0.790624643575829
sg12
I01
sg13
I2
ssI31
(dp1149
g9
I31
sg10
I1
sg11
F0.9970040383183475
sg12
I01
sg13
I4
sssg16
I4
sg17
(dp1150
I0
(dp1151
g20
g23
sg24
I0
ssI1
(dp1152
g20
g23
sg24
I1
ssI2
(dp1153
g20
g28
sg24
I2
ssI3
(dp1154
g20
g31
sg24
I3
ssI4
(dp1155
g20
g583
sg24
I4
sssg32
(lp1156
I2
asg34
F78.82741928100586
sg35
(lp1157
I0
aI1
asa(dp1158
g4
g956
sg6
(dp1159
I0
(dp1160
g9
I0
sg10
I0
sg11
F0.7637690508551005
sg12
I01
sg13
I2
ssI1
(dp1161
g9
I1
sg10
I1
sg11
F0.66193236381753
sg12
I01
sg13
I2
ssI2
(dp1162
g9
I2
sg10
I3
sg11
F0.04320259200978971
sg12
I01
sg13
I2
sssg16
I3
sg17
(dp1163
I0
(dp1164
g20
g23
sg24
I0
ssI1
(dp1165
g20
g23
sg24
I1
ssI2
(dp1166
g20
g28
sg24
I2
ssI3
(dp1167
g20
g31
sg24
I3
sssg32
g966
sg34
F78.82741928100586
sg35
g967
sa(dp1168
g4
(lp1169
I3
asg6
(dp1170
I0
(dp1171
g9
I0
sg10
I0
sg11
F0.04273047039218665
sg12
I01
sg13
I2
ssI1
(dp1172
g9
I1
sg10
I1
sg11
F-0.4604906770693213
sg12
I01
sg13
I2
ssI2
(dp1173
g9
I2
sg10
I3
sg11
F-0.9583429507292378
sg12
I01
sg13
I2
sssg16
I3
sg17
(dp1174
I0
(dp1175
g20
g23
sg24
I0
ssI1
(dp1176
g20
g23
sg24
I1
ssI2
(dp1177
g20
g28
sg24
I2
ssI3
(dp1178
g20
g31
sg24
I3
sssg32
(lp1179
I2
asg34
F78.82741928100586
sg35
(lp1180
I0
aI1
asa(dp1181
g4
g469
sg6
(dp1182
I0
(dp1183
g9
I0
sg10
I0
sg11
F-0.012055962114893343
sg12
I01
sg13
I2
ssI1
(dp1184
g9
I1
sg10
I1
sg11
F0.06553945230606621
sg12
I01
sg13
I2
ssI2
(dp1185
g9
I2
sg10
I3
sg11
F0.960680835461333
sg12
I01
sg13
I2
sssg16
I3
sg17
(dp1186
I0
(dp1187
g20
g23
sg24
I0
ssI1
(dp1188
g20
g23
sg24
I1
ssI2
(dp1189
g20
g28
sg24
I2
ssI3
(dp1190
g20
g31
sg24
I3
sssg32
g479
sg34
F78.82741928100586
sg35
g480
sa(dp1191
g4
g531
sg6
(dp1192
I0
(dp1193
g9
I0
sg10
I0
sg11
F-0.36504774157125797
sg12
I01
sg13
I2
ssI1
(dp1194
g9
I1
sg10
I1
sg11
F-0.5734730600430026
sg12
I01
sg13
I2
ssI2
(dp1195
g9
I2
sg10
I3
sg11
F-0.1634817498582427
sg12
I01
sg13
I2
sssg16
I3
sg17
(dp1196
I0
(dp1197
g20
g23
sg24
I0
ssI1
(dp1198
g20
g23
sg24
I1
ssI2
(dp1199
g20
g28
sg24
I2
ssI3
(dp1200
g20
g31
sg24
I3
sssg32
g541
sg34
F78.82741928100586
sg35
g542
sa(dp1201
g4
g235
sg6
(dp1202
I0
(dp1203
g9
I0
sg10
I0
sg11
F-0.8179056273593913
sg12
I01
sg13
I2
ssI1
(dp1204
g9
I1
sg10
I1
sg11
F-0.6757557262053238
sg12
I01
sg13
I2
ssI2
(dp1205
g9
I2
sg10
I3
sg11
F0.38700165873477216
sg12
I01
sg13
I2
sssg16
I3
sg17
(dp1206
I0
(dp1207
g20
g23
sg24
I0
ssI1
(dp1208
g20
g23
sg24
I1
ssI2
(dp1209
g20
g28
sg24
I2
ssI3
(dp1210
g20
g31
sg24
I3
sssg32
g245
sg34
F78.82741928100586
sg35
g246
sa(dp1211
g4
g739
sg6
(dp1212
I0
(dp1213
g9
I0
sg10
I0
sg11
F0.5701231595772615
sg12
I01
sg13
I2
ssI1
(dp1214
g9
I1
sg10
I1
sg11
F0.7232285118012249
sg12
I01
sg13
I2
ssI2
(dp1215
g9
I2
sg10
I3
sg11
F-0.006038858588098032
sg12
I01
sg13
I2
sssg16
I3
sg17
(dp1216
I0
(dp1217
g20
g23
sg24
I0
ssI1
(dp1218
g20
g23
sg24
I1
ssI2
(dp1219
g20
g28
sg24
I2
ssI3
(dp1220
g20
g31
sg24
I3
sssg32
g749
sg34
F78.82741928100586
sg35
g750
sa(dp1221
g4
g979
sg6
(dp1222
I0
(dp1223
g9
I0
sg10
I0
sg11
F-0.36901299873609766
sg12
I01
sg13
I2
ssI1
(dp1224
g9
I1
sg10
I1
sg11
F0.5141019622444782
sg12
I01
sg13
I2
ssI2
(dp1225
g9
I2
sg10
I3
sg11
F0.030147711558833074
sg12
I01
sg13
I2
sssg16
I3
sg17
(dp1226
I0
(dp1227
g20
g23
sg24
I0
ssI1
(dp1228
g20
g23
sg24
I1
ssI2
(dp1229
g20
g28
sg24
I2
ssI3
(dp1230
g20
g31
sg24
I3
sssg32
g989
sg34
F78.82741928100586
sg35
g990
sa(dp1231
g4
g183
sg6
(dp1232
I0
(dp1233
g9
I0
sg10
I0
sg11
F0.585457959833356
sg12
I01
sg13
I2
ssI1
(dp1234
g9
I1
sg10
I1
sg11
F0.7223356540356701
sg12
I01
sg13
I2
ssI2
(dp1235
g9
I2
sg10
I3
sg11
F-0.7977224229599997
sg12
I01
sg13
I2
sssg16
I3
sg17
(dp1236
I0
(dp1237
g20
g23
sg24
I0
ssI1
(dp1238
g20
g23
sg24
I1
ssI2
(dp1239
g20
g28
sg24
I2
ssI3
(dp1240
g20
g31
sg24
I3
sssg32
g193
sg34
F78.82741928100586
sg35
g194
sa(dp1241
g4
g518
sg6
(dp1242
I0
(dp1243
g9
I0
sg10
I0
sg11
F0.7282845302954183
sg12
I01
sg13
I2
ssI1
(dp1244
g9
I1
sg10
I1
sg11
F0.057411514537498966
sg12
I01
sg13
I2
ssI2
(dp1245
g9
I2
sg10
I3
sg11
F-0.9377362628848602
sg12
I01
sg13
I2
sssg16
I3
sg17
(dp1246
I0
(dp1247
g20
g23
sg24
I0
ssI1
(dp1248
g20
g23
sg24
I1
ssI2
(dp1249
g20
g28
sg24
I2
ssI3
(dp1250
g20
g31
sg24
I3
sssg32
g528
sg34
F78.82741928100586
sg35
g529
sa(dp1251
g4
(lp1252
I3
asg6
(dp1253
I0
(dp1254
g9
I0
sg10
I0
sg11
F0.6413890920536243
sg12
I01
sg13
I2
ssI1
(dp1255
g9
I1
sg10
I1
sg11
F0.11658749554315409
sg12
I01
sg13
I2
ssI2
(dp1256
g9
I2
sg10
I3
sg11
F-0.9487518968785221
sg12
I01
sg13
I2
sssg16
I3
sg17
(dp1257
I0
(dp1258
g20
g23
sg24
I0
ssI1
(dp1259
g20
g23
sg24
I1
ssI2
(dp1260
g20
g28
sg24
I2
ssI3
(dp1261
g20
g31
sg24
I3
sssg32
(lp1262
I2
asg34
F78.82741928100586
sg35
(lp1263
I0
aI1
asa(dp1264
g4
g621
sg6
(dp1265
I0
(dp1266
g9
I0
sg10
I0
sg11
F-0.011128329597378498
sg12
I01
sg13
I2
ssI1
(dp1267
g9
I1
sg10
I1
sg11
F0.2947939940705193
sg12
I01
sg13
I2
ssI2
(dp1268
g9
I2
sg10
I3
sg11
F0.4840823963601248
sg12
I01
sg13
I2
sssg16
I3
sg17
(dp1269
I0
(dp1270
g20
g23
sg24
I0
ssI1
(dp1271
g20
g23
sg24
I1
ssI2
(dp1272
g20
g28
sg24
I2
ssI3
(dp1273
g20
g31
sg24
I3
sssg32
g631
sg34
F78.82741928100586
sg35
g632
sa(dp1274
g4
g893
sg6
(dp1275
I0
(dp1276
g9
I0
sg10
I0
sg11
F-0.29823403315627894
sg12
I01
sg13
I2
ssI1
(dp1277
g9
I1
sg10
I1
sg11
F-0.07378214032215519
sg12
I01
sg13
I2
ssI2
(dp1278
g9
I2
sg10
I3
sg11
F0.8913408028439391
sg12
I01
sg13
I2
sssg16
I3
sg17
(dp1279
I0
(dp1280
g20
g23
sg24
I0
ssI1
(dp1281
g20
g23
sg24
I1
ssI2
(dp1282
g20
g28
sg24
I2
ssI3
(dp1283
g20
g31
sg24
I3
sssg32
g903
sg34
F78.82741928100586
sg35
g904
sa(dp1284
g4
g531
sg6
(dp1285
I0
(dp1286
g9
I0
sg10
I0
sg11
F-0.3707174519560201
sg12
I01
sg13
I2
ssI1
(dp1287
g9
I1
sg10
I1
sg11
F0.7364813943695491
sg12
I01
sg13
I2
ssI2
(dp1288
g9
I2
sg10
I3
sg11
F-0.26988212649296645
sg12
I01
sg13
I2
sssg16
I3
sg17
(dp1289
I0
(dp1290
g20
g23
sg24
I0
ssI1
(dp1291
g20
g23
sg24
I1
ssI2
(dp1292
g20
g28
sg24
I2
ssI3
(dp1293
g20
g31
sg24
I3
sssg32
g541
sg34
F78.82741928100586
sg35
g542
sa(dp1294
g4
g55
sg6
(dp1295
I0
(dp1296
g9
I0
sg10
I0
sg11
F-0.6334705336068109
sg12
I01
sg13
I2
ssI1
(dp1297
g9
I1
sg10
I1
sg11
F0.30961217929818646
sg12
I01
sg13
I2
ssI2
(dp1298
g9
I2
sg10
I3
sg11
F-0.05070701994119453
sg12
I01
sg13
I2
sssg16
I3
sg17
(dp1299
I0
(dp1300
g20
g23
sg24
I0
ssI1
(dp1301
g20
g23
sg24
I1
ssI2
(dp1302
g20
g28
sg24
I2
ssI3
(dp1303
g20
g31
sg24
I3
sssg32
g65
sg34
F78.82741928100586
sg35
g66
sa(dp1304
g4
g1058
sg6
(dp1305
I0
(dp1306
g9
I0
sg10
I0
sg11
F0.6199332438851588
sg12
I01
sg13
I2
ssI1
(dp1307
g9
I1
sg10
I1
sg11
F-0.6800271794702114
sg12
I01
sg13
I2
ssI2
(dp1308
g9
I2
sg10
I3
sg11
F-0.6765688964610339
sg12
I01
sg13
I2
sssg16
I3
sg17
(dp1309
I0
(dp1310
g20
g23
sg24
I0
ssI1
(dp1311
g20
g23
sg24
I1
ssI2
(dp1312
g20
g28
sg24
I2
ssI3
(dp1313
g20
g31
sg24
I3
sssg32
g1068
sg34
F78.82741928100586
sg35
g1069
sa(dp1314
g4
(lp1315
I3
asg6
(dp1316
I0
(dp1317
g9
I0
sg10
I0
sg11
F0.14842066861843747
sg12
I01
sg13
I2
ssI1
(dp1318
g9
I1
sg10
I1
sg11
F-0.8341069514376286
sg12
I01
sg13
I2
ssI2
(dp1319
g9
I2
sg10
I3
sg11
F0.21678513599462954
sg12
I01
sg13
I2
sssg16
I3
sg17
(dp1320
I0
(dp1321
g20
g23
sg24
I0
ssI1
(dp1322
g20
g23
sg24
I1
ssI2
(dp1323
g20
g28
sg24
I2
ssI3
(dp1324
g20
g31
sg24
I3
sssg32
(lp1325
I2
asg34
F78.82741928100586
sg35
(lp1326
I0
aI1
asa(dp1327
g4
g1169
sg6
(dp1328
I0
(dp1329
g9
I0
sg10
I0
sg11
F-0.992432142932474
sg12
I01
sg13
I2
ssI1
(dp1330
g9
I1
sg10
I1
sg11
F0.6481919703092054
sg12
I01
sg13
I2
ssI2
(dp1331
g9
I2
sg10
I3
sg11
F-0.8355852558350135
sg12
I01
sg13
I2
sssg16
I3
sg17
(dp1332
I0
(dp1333
g20
g23
sg24
I0
ssI1
(dp1334
g20
g23
sg24
I1
ssI2
(dp1335
g20
g28
sg24
I2
ssI3
(dp1336
g20
g31
sg24
I3
sssg32
g1179
sg34
F78.82741928100586
sg35
g1180
sa(dp1337
g4
g557
sg6
(dp1338
I0
(dp1339
g9
I0
sg10
I0
sg11
F0.1725356851602795
sg12
I01
sg13
I2
ssI1
(dp1340
g9
I1
sg10
I1
sg11
F-0.8896800502940044
sg12
I01
sg13
I2
ssI2
(dp1341
g9
I2
sg10
I3
sg11
F-0.28108682121824735
sg12
I01
sg13
I2
sssg16
I3
sg17
(dp1342
I0
(dp1343
g20
g23
sg24
I0
ssI1
(dp1344
g20
g23
sg24
I1
ssI2
(dp1345
g20
g28
sg24
I2
ssI3
(dp1346
g20
g31
sg24
I3
sssg32
g567
sg34
F78.82741928100586
sg35
g568
sa(dp1347
g4
g42
sg6
(dp1348
I0
(dp1349
g9
I0
sg10
I0
sg11
F-0.2132859245809098
sg12
I01
sg13
I2
ssI1
(dp1350
g9
I1
sg10
I1
sg11
F0.5563496519802056
sg12
I01
sg13
I2
ssI2
(dp1351
g9
I2
sg10
I3
sg11
F-0.8611518364263435
sg12
I01
sg13
I2
sssg16
I3
sg17
(dp1352
I0
(dp1353
g20
g23
sg24
I0
ssI1
(dp1354
g20
g23
sg24
I1
ssI2
(dp1355
g20
g28
sg24
I2
ssI3
(dp1356
g20
g31
sg24
I3
sssg32
g52
sg34
F78.82741928100586
sg35
g53
sa(dp1357
g4
g979
sg6
(dp1358
I0
(dp1359
g9
I0
sg10
I0
sg11
F-0.696266822861366
sg12
I01
sg13
I2
ssI1
(dp1360
g9
I1
sg10
I1
sg11
F-0.7522365487937608
sg12
I01
sg13
I2
ssI2
(dp1361
g9
I2
sg10
I3
sg11
F-0.4972576279224528
sg12
I01
sg13
I2
sssg16
I3
sg17
(dp1362
I0
(dp1363
g20
g23
sg24
I0
ssI1
(dp1364
g20
g23
sg24
I1
ssI2
(dp1365
g20
g28
sg24
I2
ssI3
(dp1366
g20
g31
sg24
I3
sssg32
g989
sg34
F78.82741928100586
sg35
g990
sa(dp1367
g4
g1012
sg6
(dp1368
I0
(dp1369
g9
I0
sg10
I0
sg11
F-0.3125193924793592
sg12
I01
sg13
I2
ssI1
(dp1370
g9
I1
sg10
I1
sg11
F0.4643491545502776
sg12
I01
sg13
I2
ssI2
(dp1371
g9
I2
sg10
I3
sg11
F0.8657156524294024
sg12
I01
sg13
I2
sssg16
I3
sg17
(dp1372
I0
(dp1373
g20
g23
sg24
I0
ssI1
(dp1374
g20
g23
sg24
I1
ssI2
(dp1375
g20
g28
sg24
I2
ssI3
(dp1376
g20
g31
sg24
I3
sssg32
g1022
sg34
F78.82741928100586
sg35
g1023
sa(dp1377
g4
g1025
sg6
(dp1378
I0
(dp1379
g9
I0
sg10
I0
sg11
F-0.8678522390373019
sg12
I01
sg13
I2
ssI1
(dp1380
g9
I1
sg10
I1
sg11
F-0.07899446880961533
sg12
I01
sg13
I2
ssI2
(dp1381
g9
I2
sg10
I3
sg11
F-0.495841080305723
sg12
I01
sg13
I2
sssg16
I3
sg17
(dp1382
I0
(dp1383
g20
g23
sg24
I0
ssI1
(dp1384
g20
g23
sg24
I1
ssI2
(dp1385
g20
g28
sg24
I2
ssI3
(dp1386
g20
g31
sg24
I3
sssg32
g1035
sg34
F78.82741928100586
sg35
g1036
sa(dp1387
g4
g1143
sg6
(dp1388
I0
(dp1389
g9
I0
sg10
I0
sg11
F-0.2145243118123876
sg12
I01
sg13
I2
ssI1
(dp1390
g9
I1
sg10
I1
sg11
F-0.8471581106848413
sg12
I01
sg13
I2
ssI2
(dp1391
g9
I2
sg10
I3
sg11
F0.5420404038881725
sg12
I01
sg13
I2
sssg16
I3
sg17
(dp1392
I0
(dp1393
g20
g23
sg24
I0
ssI1
(dp1394
g20
g23
sg24
I1
ssI2
(dp1395
g20
g28
sg24
I2
ssI3
(dp1396
g20
g31
sg24
I3
sssg32
g1156
sg34
F78.82741928100586
sg35
g1157
sa(dp1397
g4
g456
sg6
(dp1398
I0
(dp1399
g9
I0
sg10
I0
sg11
F-0.1947840744602211
sg12
I01
sg13
I2
ssI1
(dp1400
g9
I1
sg10
I1
sg11
F0.41580408871543717
sg12
I01
sg13
I2
ssI2
(dp1401
g9
I2
sg10
I3
sg11
F0.7747490523637806
sg12
I01
sg13
I2
sssg16
I3
sg17
(dp1402
I0
(dp1403
g20
g23
sg24
I0
ssI1
(dp1404
g20
g23
sg24
I1
ssI2
(dp1405
g20
g28
sg24
I2
ssI3
(dp1406
g20
g31
sg24
I3
sssg32
g466
sg34
F78.82741928100586
sg35
g467
sa(dp1407
g4
g456
sg6
(dp1408
I0
(dp1409
g9
I0
sg10
I0
sg11
F0.6040842429672193
sg12
I01
sg13
I2
ssI1
(dp1410
g9
I1
sg10
I1
sg11
F-0.16095801842357202
sg12
I01
sg13
I2
ssI2
(dp1411
g9
I2
sg10
I3
sg11
F-0.43857915584349083
sg12
I01
sg13
I2
sssg16
I3
sg17
(dp1412
I0
(dp1413
g20
g23
sg24
I0
ssI1
(dp1414
g20
g23
sg24
I1
ssI2
(dp1415
g20
g28
sg24
I2
ssI3
(dp1416
g20
g31
sg24
I3
sssg32
g466
sg34
F78.82741928100586
sg35
g467
sa(dp1417
g4
(lp1418
I3
asg6
(dp1419
I0
(dp1420
g9
I0
sg10
I0
sg11
F-0.11659752245624368
sg12
I01
sg13
I2
ssI1
(dp1421
g9
I1
sg10
I1
sg11
F-0.35810748482837923
sg12
I01
sg13
I2
ssI2
(dp1422
g9
I2
sg10
I3
sg11
F0.22012342446944216
sg12
I01
sg13
I2
sssg16
I3
sg17
(dp1423
I0
(dp1424
g20
g23
sg24
I0
ssI1
(dp1425
g20
g23
sg24
I1
ssI2
(dp1426
g20
g28
sg24
I2
ssI3
(dp1427
g20
g31
sg24
I3
sssg32
(lp1428
I2
asg34
F78.82741928100586
sg35
(lp1429
I0
aI1
asa(dp1430
g4
g893
sg6
(dp1431
I0
(dp1432
g9
I0
sg10
I0
sg11
F-0.2275663947756449
sg12
I01
sg13
I2
ssI1
(dp1433
g9
I1
sg10
I1
sg11
F0.1895483435103563
sg12
I01
sg13
I2
ssI2
(dp1434
g9
I2
sg10
I3
sg11
F-0.4344518419433628
sg12
I01
sg13
I2
sssg16
I3
sg17
(dp1435
I0
(dp1436
g20
g23
sg24
I0
ssI1
(dp1437
g20
g23
sg24
I1
ssI2
(dp1438
g20
g28
sg24
I2
ssI3
(dp1439
g20
g31
sg24
I3
sssg32
g903
sg34
F78.82741928100586
sg35
g904
sa(dp1440
g4
g407
sg6
(dp1441
I0
(dp1442
g9
I0
sg10
I0
sg11
F0.7122591733467758
sg12
I01
sg13
I2
ssI1
(dp1443
g9
I1
sg10
I1
sg11
F-0.07398262639769289
sg12
I01
sg13
I2
ssI2
(dp1444
g9
I2
sg10
I3
sg11
F0.09862800778967555
sg12
I01
sg13
I2
sssg16
I3
sg17
(dp1445
I0
(dp1446
g20
g23
sg24
I0
ssI1
(dp1447
g20
g23
sg24
I1
ssI2
(dp1448
g20
g28
sg24
I2
ssI3
(dp1449
g20
g31
sg24
I3
sssg32
g417
sg34
F78.82741928100586
sg35
g418
sa(dp1450
g4
(lp1451
I3
asg6
(dp1452
I0
(dp1453
g9
I0
sg10
I0
sg11
F-0.9633942003725147
sg12
I01
sg13
I2
ssI1
(dp1454
g9
I1
sg10
I1
sg11
F-0.8804245702620845
sg12
I01
sg13
I2
ssI2
(dp1455
g9
I2
sg10
I3
sg11
F-0.40718695093744733
sg12
I01
sg13
I2
sssg16
I3
sg17
(dp1456
I0
(dp1457
g20
g23
sg24
I0
ssI1
(dp1458
g20
g23
sg24
I1
ssI2
(dp1459
g20
g28
sg24
I2
ssI3
(dp1460
g20
g31
sg24
I3
sssg32
(lp1461
I2
asg34
F78.82741928100586
sg35
(lp1462
I0
aI1
asa(dp1463
g4
g1418
sg6
(dp1464
I0
(dp1465
g9
I0
sg10
I0
sg11
F0.5796388613580765
sg12
I01
sg13
I2
ssI1
(dp1466
g9
I1
sg10
I1
sg11
F-0.34643912495879764
sg12
I01
sg13
I2
ssI2
(dp1467
g9
I2
sg10
I3
sg11
F-0.034807627558734136
sg12
I00
sg13
I2
sssg16
I3
sg17
(dp1468
I0
(dp1469
g20
g23
sg24
I0
ssI1
(dp1470
g20
g23
sg24
I1
ssI2
(dp1471
g20
g28
sg24
I2
ssI3
(dp1472
g20
g31
sg24
I3
sssg32
g1428
sg34
F78.82741928100586
sg35
g1429
sa(dp1473
g4
g1130
sg6
(dp1474
I0
(dp1475
g9
I0
sg10
I0
sg11
F0.8470910221748782
sg12
I01
sg13
I2
ssI1
(dp1476
g9
I1
sg10
I1
sg11
F-0.22720990328461682
sg12
I01
sg13
I2
ssI2
(dp1477
g9
I2
sg10
I3
sg11
F-0.6552801366149203
sg12
I01
sg13
I2
sssg16
I3
sg17
(dp1478
I0
(dp1479
g20
g23
sg24
I0
ssI1
(dp1480
g20
g23
sg24
I1
ssI2
(dp1481
g20
g28
sg24
I2
ssI3
(dp1482
g20
g31
sg24
I3
sssg32
g1140
sg34
F78.82741928100586
sg35
g1141
sa(dp1483
g4
(lp1484
I3
asg6
(dp1485
I0
(dp1486
g9
I0
sg10
I0
sg11
F0.3646862453480139
sg12
I01
sg13
I2
ssI1
(dp1487
g9
I1
sg10
I1
sg11
F0.35145393332595987
sg12
I01
sg13
I2
ssI2
(dp1488
g9
I2
sg10
I3
sg11
F0.8659386317969222
sg12
I01
sg13
I2
sssg16
I3
sg17
(dp1489
I0
(dp1490
g20
g23
sg24
I0
ssI1
(dp1491
g20
g23
sg24
I1
ssI2
(dp1492
g20
g28
sg24
I2
ssI3
(dp1493
g20
g31
sg24
I3
sssg32
(lp1494
I2
asg34
F78.82741928100586
sg35
(lp1495
I0
aI1
asa(dp1496
g4
g68
sg6
(dp1497
I0
(dp1498
g9
I0
sg10
I0
sg11
F0.3475407877162845
sg12
I01
sg13
I2
ssI1
(dp1499
g9
I1
sg10
I1
sg11
F-0.07174718652138966
sg12
I01
sg13
I2
ssI2
(dp1500
g9
I2
sg10
I3
sg11
F-0.6636443392420466
sg12
I01
sg13
I2
sssg16
I3
sg17
(dp1501
I0
(dp1502
g20
g23
sg24
I0
ssI1
(dp1503
g20
g23
sg24
I1
ssI2
(dp1504
g20
g28
sg24
I2
ssI3
(dp1505
g20
g31
sg24
I3
sssg32
g78
sg34
F78.82741928100586
sg35
g79
sa(dp1506
g4
g956
sg6
(dp1507
I0
(dp1508
g9
I0
sg10
I0
sg11
F-0.8956742306482864
sg12
I00
sg13
I2
ssI1
(dp1509
g9
I1
sg10
I1
sg11
F-0.6905475270800132
sg12
I01
sg13
I2
ssI2
(dp1510
g9
I2
sg10
I3
sg11
F0.30330125892590365
sg12
I01
sg13
I2
sssg16
I3
sg17
(dp1511
I0
(dp1512
g20
g23
sg24
I0
ssI1
(dp1513
g20
g23
sg24
I1
ssI2
(dp1514
g20
g28
sg24
I2
ssI3
(dp1515
g20
g31
sg24
I3
sssg32
g966
sg34
F78.82741928100586
sg35
g967
sa(dp1516
g4
g469
sg6
(dp1517
I0
(dp1518
g9
I0
sg10
I0
sg11
F-0.9043894874461107
sg12
I01
sg13
I2
ssI1
(dp1519
g9
I1
sg10
I1
sg11
F-0.6188843208503935
sg12
I01
sg13
I2
ssI2
(dp1520
g9
I2
sg10
I3
sg11
F-0.2519861642792806
sg12
I01
sg13
I2
sssg16
I3
sg17
(dp1521
I0
(dp1522
g20
g23
sg24
I0
ssI1
(dp1523
g20
g23
sg24
I1
ssI2
(dp1524
g20
g28
sg24
I2
ssI3
(dp1525
g20
g31
sg24
I3
sssg32
g479
sg34
F78.82741928100586
sg35
g480
sa(dp1526
g4
g117
sg6
(dp1527
I0
(dp1528
g9
I0
sg10
I0
sg11
F-0.21909662750014625
sg12
I00
sg13
I2
ssI1
(dp1529
g9
I1
sg10
I1
sg11
F-0.23551715534620352
sg12
I01
sg13
I2
ssI2
(dp1530
g9
I2
sg10
I3
sg11
F0.10355436705872773
sg12
I01
sg13
I2
sssg16
I3
sg17
(dp1531
I0
(dp1532
g20
g23
sg24
I0
ssI1
(dp1533
g20
g23
sg24
I1
ssI2
(dp1534
g20
g28
sg24
I2
ssI3
(dp1535
g20
g31
sg24
I3
sssg32
g127
sg34
F78.82741928100586
sg35
g128
sa(dp1536
g4
g870
sg6
(dp1537
I0
(dp1538
g9
I0
sg10
I0
sg11
F-0.36889595938193176
sg12
I01
sg13
I2
ssI1
(dp1539
g9
I1
sg10
I1
sg11
F0.7976581745812081
sg12
I01
sg13
I2
ssI2
(dp1540
g9
I2
sg10
I3
sg11
F-0.5378405939144216
sg12
I01
sg13
I2
sssg16
I3
sg17
(dp1541
I0
(dp1542
g20
g23
sg24
I0
ssI1
(dp1543
g20
g23
sg24
I1
ssI2
(dp1544
g20
g28
sg24
I2
ssI3
(dp1545
g20
g31
sg24
I3
sssg32
g880
sg34
F78.82741928100586
sg35
g881
sa(dp1546
g4
g1252
sg6
(dp1547
I0
(dp1548
g9
I0
sg10
I0
sg11
F-0.6634356316753096
sg12
I01
sg13
I2
ssI1
(dp1549
g9
I1
sg10
I1
sg11
F-0.28585587801026935
sg12
I01
sg13
I2
ssI2
(dp1550
g9
I2
sg10
I3
sg11
F0.2712083577947034
sg12
I01
sg13
I2
sssg16
I3
sg17
(dp1551
I0
(dp1552
g20
g23
sg24
I0
ssI1
(dp1553
g20
g23
sg24
I1
ssI2
(dp1554
g20
g28
sg24
I2
ssI3
(dp1555
g20
g31
sg24
I3
sssg32
g1262
sg34
F78.82741928100586
sg35
g1263
sa(dp1556
g4
g222
sg6
(dp1557
I0
(dp1558
g9
I0
sg10
I0
sg11
F0.3758109571327752
sg12
I01
sg13
I2
ssI1
(dp1559
g9
I1
sg10
I1
sg11
F-0.23761155728036235
sg12
I01
sg13
I2
ssI2
(dp1560
g9
I2
sg10
I3
sg11
F0.7450289040417363
sg12
I01
sg13
I2
sssg16
I3
sg17
(dp1561
I0
(dp1562
g20
g23
sg24
I0
ssI1
(dp1563
g20
g23
sg24
I1
ssI2
(dp1564
g20
g28
sg24
I2
ssI3
(dp1565
g20
g31
sg24
I3
sssg32
g232
sg34
F78.82741928100586
sg35
g233
sa(dp1566
g4
g222
sg6
(dp1567
I0
(dp1568
g9
I0
sg10
I0
sg11
F0.2045913582465077
sg12
I01
sg13
I2
ssI1
(dp1569
g9
I1
sg10
I1
sg11
F0.06618173685556383
sg12
I01
sg13
I2
ssI2
(dp1570
g9
I2
sg10
I3
sg11
F0.04307188455366205
sg12
I01
sg13
I2
sssg16
I3
sg17
(dp1571
I0
(dp1572
g20
g23
sg24
I0
ssI1
(dp1573
g20
g23
sg24
I1
ssI2
(dp1574
g20
g28
sg24
I2
ssI3
(dp1575
g20
g31
sg24
I3
sssg32
g232
sg34
F78.82741928100586
sg35
g233
sa(dp1576
g4
g956
sg6
(dp1577
I0
(dp1578
g9
I0
sg10
I0
sg11
F0.831557066385244
sg12
I01
sg13
I2
ssI1
(dp1579
g9
I1
sg10
I1
sg11
F-0.7725046582423738
sg12
I01
sg13
I2
ssI2
(dp1580
g9
I2
sg10
I3
sg11
F0.5081780071119699
sg12
I01
sg13
I2
sssg16
I3
sg17
(dp1581
I0
(dp1582
g20
g23
sg24
I0
ssI1
(dp1583
g20
g23
sg24
I1
ssI2
(dp1584
g20
g28
sg24
I2
ssI3
(dp1585
g20
g31
sg24
I3
sssg32
g966
sg34
F78.82741928100586
sg35
g967
sa(dp1586
g4
g979
sg6
(dp1587
I0
(dp1588
g9
I0
sg10
I0
sg11
F-0.7037110889756634
sg12
I01
sg13
I2
ssI1
(dp1589
g9
I1
sg10
I1
sg11
F-0.8342371789052976
sg12
I01
sg13
I2
ssI2
(dp1590
g9
I2
sg10
I3
sg11
F-0.27624359645799046
sg12
I01
sg13
I2
sssg16
I3
sg17
(dp1591
I0
(dp1592
g20
g23
sg24
I0
ssI1
(dp1593
g20
g23
sg24
I1
ssI2
(dp1594
g20
g28
sg24
I2
ssI3
(dp1595
g20
g31
sg24
I3
sssg32
g989
sg34
F78.82741928100586
sg35
g990
sa(dp1596
g4
g456
sg6
(dp1597
I0
(dp1598
g9
I0
sg10
I0
sg11
F0.6707836941569996
sg12
I01
sg13
I2
ssI1
(dp1599
g9
I1
sg10
I1
sg11
F0.6404653277075082
sg12
I01
sg13
I2
ssI2
(dp1600
g9
I2
sg10
I3
sg11
F-0.36036502761198996
sg12
I00
sg13
I2
ssI34
(dp1601
g9
I34
sg10
I4
sg11
F-0.3544799942564623
sg12
I01
sg13
I2
ssI33
(dp1602
g9
I33
sg10
I3
sg11
F1.0318280694983442
sg12
I01
sg13
I4
sssg16
I4
sg17
(dp1603
I0
(dp1604
g20
g23
sg24
I0
ssI1
(dp1605
g20
g23
sg24
I1
ssI2
(dp1606
g20
g28
sg24
I2
ssI3
(dp1607
g20
g31
sg24
I3
ssI4
(dp1608
g20
g583
sg24
I4
sssg32
g466
sg34
F78.82741928100586
sg35
g467
sa(dp1609
g4
(lp1610
I3
asg6
(dp1611
I0
(dp1612
g9
I0
sg10
I0
sg11
F0.016194916801224656
sg12
I01
sg13
I2
ssI1
(dp1613
g9
I1
sg10
I1
sg11
F-0.0756045754482819
sg12
I01
sg13
I2
ssI2
(dp1614
g9
I2
sg10
I3
sg11
F0.8119959560195008
sg12
I01
sg13
I2
sssg16
I3
sg17
(dp1615
I0
(dp1616
g20
g23
sg24
I0
ssI1
(dp1617
g20
g23
sg24
I1
ssI2
(dp1618
g20
g28
sg24
I2
ssI3
(dp1619
g20
g31
sg24
I3
sssg32
(lp1620
I2
asg34
F78.82741928100586
sg35
(lp1621
I0
aI1
asa(dp1622
g4
g713
sg6
(dp1623
I0
(dp1624
g9
I0
sg10
I0
sg11
F-0.19031302163466424
sg12
I01
sg13
I2
ssI1
(dp1625
g9
I1
sg10
I1
sg11
F0.8409183380531515
sg12
I01
sg13
I2
ssI2
(dp1626
g9
I2
sg10
I3
sg11
F-0.48481418497744144
sg12
I01
sg13
I2
sssg16
I3
sg17
(dp1627
I0
(dp1628
g20
g23
sg24
I0
ssI1
(dp1629
g20
g23
sg24
I1
ssI2
(dp1630
g20
g28
sg24
I2
ssI3
(dp1631
g20
g31
sg24
I3
sssg32
g723
sg34
F78.82741928100586
sg35
g724
sa(dp1632
g4
(lp1633
I3
asg6
(dp1634
I0
(dp1635
g9
I0
sg10
I0
sg11
F0.5571887529910107
sg12
I01
sg13
I2
ssI1
(dp1636
g9
I1
sg10
I1
sg11
F-0.2543804508137724
sg12
I01
sg13
I2
ssI2
(dp1637
g9
I2
sg10
I3
sg11
F0.8619123812912781
sg12
I01
sg13
I2
sssg16
I3
sg17
(dp1638
I0
(dp1639
g20
g23
sg24
I0
ssI1
(dp1640
g20
g23
sg24
I1
ssI2
(dp1641
g20
g28
sg24
I2
ssI3
(dp1642
g20
g31
sg24
I3
sssg32
(lp1643
I2
asg34
F78.82741928100586
sg35
(lp1644
I0
aI1
asa(dp1645
g4
g1451
sg6
(dp1646
I0
(dp1647
g9
I0
sg10
I0
sg11
F-0.010161786414757599
sg12
I01
sg13
I2
ssI1
(dp1648
g9
I1
sg10
I1
sg11
F-0.9572308887443667
sg12
I01
sg13
I2
ssI2
(dp1649
g9
I2
sg10
I3
sg11
F-0.19212183431664331
sg12
I01
sg13
I2
sssg16
I3
sg17
(dp1650
I0
(dp1651
g20
g23
sg24
I0
ssI1
(dp1652
g20
g23
sg24
I1
ssI2
(dp1653
g20
g28
sg24
I2
ssI3
(dp1654
g20
g31
sg24
I3
sssg32
g1461
sg34
F78.82741928100586
sg35
g1462
sa(dp1655
g4
(lp1656
I3
asg6
(dp1657
I0
(dp1658
g9
I0
sg10
I0
sg11
F-0.19031302163466424
sg12
I01
sg13
I2
ssI1
(dp1659
g9
I1
sg10
I1
sg11
F0.6952278244399636
sg12
I01
sg13
I2
ssI2
(dp1660
g9
I2
sg10
I3
sg11
F0.07333356924814063
sg12
I01
sg13
I2
sssg16
I3
sg17
(dp1661
I0
(dp1662
g20
g23
sg24
I0
ssI1
(dp1663
g20
g23
sg24
I1
ssI2
(dp1664
g20
g28
sg24
I2
ssI3
(dp1665
g20
g31
sg24
I3
sssg32
(lp1666
I2
asg34
F78.82741928100586
sg35
(lp1667
I0
aI1
asa(dp1668
g4
g456
sg6
(dp1669
I0
(dp1670
g9
I0
sg10
I0
sg11
F-0.23669435272085504
sg12
I01
sg13
I2
ssI1
(dp1671
g9
I1
sg10
I1
sg11
F0.7473432735723035
sg12
I01
sg13
I2
ssI2
(dp1672
g9
I2
sg10
I3
sg11
F-0.9468951269125822
sg12
I01
sg13
I2
sssg16
I3
sg17
(dp1673
I0
(dp1674
g20
g23
sg24
I0
ssI1
(dp1675
g20
g23
sg24
I1
ssI2
(dp1676
g20
g28
sg24
I2
ssI3
(dp1677
g20
g31
sg24
I3
sssg32
g466
sg34
F78.82741928100586
sg35
g467
sa(dp1678
g4
g495
sg6
(dp1679
I0
(dp1680
g9
I0
sg10
I0
sg11
F0.18090627636405263
sg12
I01
sg13
I2
ssI1
(dp1681
g9
I1
sg10
I1
sg11
F0.12484528197995064
sg12
I01
sg13
I2
ssI2
(dp1682
g9
I2
sg10
I3
sg11
F-0.7378887150003314
sg12
I01
sg13
I2
sssg16
I3
sg17
(dp1683
I0
(dp1684
g20
g23
sg24
I0
ssI1
(dp1685
g20
g23
sg24
I1
ssI2
(dp1686
g20
g28
sg24
I2
ssI3
(dp1687
g20
g31
sg24
I3
sssg32
g505
sg34
F78.82741928100586
sg35
g506
sa(dp1688
g4
g469
sg6
(dp1689
I0
(dp1690
g9
I0
sg10
I0
sg11
F0.03297600727966349
sg12
I01
sg13
I2
ssI1
(dp1691
g9
I1
sg10
I1
sg11
F-0.45417667992403105
sg12
I01
sg13
I2
ssI2
(dp1692
g9
I2
sg10
I3
sg11
F-0.25788882165114885
sg12
I01
sg13
I2
sssg16
I3
sg17
(dp1693
I0
(dp1694
g20
g23
sg24
I0
ssI1
(dp1695
g20
g23
sg24
I1
ssI2
(dp1696
g20
g28
sg24
I2
ssI3
(dp1697
g20
g31
sg24
I3
sssg32
g479
sg34
F78.82741928100586
sg35
g480
sa(dp1698
g4
g781
sg6
(dp1699
I0
(dp1700
g9
I0
sg10
I0
sg11
F-0.6327445149789185
sg12
I01
sg13
I2
ssI1
(dp1701
g9
I1
sg10
I1
sg11
F-0.6852744395929956
sg12
I01
sg13
I2
ssI2
(dp1702
g9
I2
sg10
I3
sg11
F-0.01345746083024058
sg12
I01
sg13
I2
sssg16
I3
sg17
(dp1703
I0
(dp1704
g20
g23
sg24
I0
ssI1
(dp1705
g20
g23
sg24
I1
ssI2
(dp1706
g20
g28
sg24
I2
ssI3
(dp1707
g20
g31
sg24
I3
sssg32
g791
sg34
F78.82741928100586
sg35
g792
sa(dp1708
g4
g781
sg6
(dp1709
I0
(dp1710
g9
I0
sg10
I0
sg11
F-0.3187905974476798
sg12
I01
sg13
I2
ssI1
(dp1711
g9
I1
sg10
I1
sg11
F-0.25530054138888164
sg12
I01
sg13
I2
ssI2
(dp1712
g9
I2
sg10
I3
sg11
F0.24397402261084708
sg12
I01
sg13
I2
sssg16
I3
sg17
(dp1713
I0
(dp1714
g20
g23
sg24
I0
ssI1
(dp1715
g20
g23
sg24
I1
ssI2
(dp1716
g20
g28
sg24
I2
ssI3
(dp1717
g20
g31
sg24
I3
sssg32
g791
sg34
F78.82741928100586
sg35
g792
sa(dp1718
g4
g1315
sg6
(dp1719
I0
(dp1720
g9
I0
sg10
I0
sg11
F-0.7649069110236626
sg12
I01
sg13
I2
ssI1
(dp1721
g9
I1
sg10
I1
sg11
F-0.9717590030026029
sg12
I01
sg13
I2
ssI2
(dp1722
g9
I2
sg10
I3
sg11
F1.0574280661203306
sg12
I01
sg13
I2
sssg16
I3
sg17
(dp1723
I0
(dp1724
g20
g23
sg24
I0
ssI1
(dp1725
g20
g23
sg24
I1
ssI2
(dp1726
g20
g28
sg24
I2
ssI3
(dp1727
g20
g31
sg24
I3
sssg32
g1325
sg34
F78.82741928100586
sg35
g1326
sa(dp1728
g4
g1104
sg6
(dp1729
I0
(dp1730
g9
I0
sg10
I0
sg11
F-0.5724719994886274
sg12
I01
sg13
I2
ssI1
(dp1731
g9
I1
sg10
I1
sg11
F0.9760373222661486
sg12
I01
sg13
I2
ssI2
(dp1732
g9
I2
sg10
I3
sg11
F-0.22262187257528704
sg12
I01
sg13
I2
sssg16
I3
sg17
(dp1733
I0
(dp1734
g20
g23
sg24
I0
ssI1
(dp1735
g20
g23
sg24
I1
ssI2
(dp1736
g20
g28
sg24
I2
ssI3
(dp1737
g20
g31
sg24
I3
sssg32
g1114
sg34
F78.82741928100586
sg35
g1115
sa(dp1738
g4
g1025
sg6
(dp1739
I0
(dp1740
g9
I0
sg10
I0
sg11
F-0.06398515189260572
sg12
I01
sg13
I2
ssI1
(dp1741
g9
I1
sg10
I1
sg11
F0.7794386276403342
sg12
I01
sg13
I2
ssI2
(dp1742
g9
I2
sg10
I3
sg11
F-0.3282022528074576
sg12
I01
sg13
I2
sssg16
I3
sg17
(dp1743
I0
(dp1744
g20
g23
sg24
I0
ssI1
(dp1745
g20
g23
sg24
I1
ssI2
(dp1746
g20
g28
sg24
I2
ssI3
(dp1747
g20
g31
sg24
I3
sssg32
g1035
sg34
F78.82741928100586
sg35
g1036
sa(dp1748
g4
(lp1749
I3
asg6
(dp1750
I0
(dp1751
g9
I0
sg10
I0
sg11
F0.5256576176467903
sg12
I01
sg13
I2
ssI1
(dp1752
g9
I1
sg10
I1
sg11
F-0.5719930457257101
sg12
I01
sg13
I2
ssI2
(dp1753
g9
I2
sg10
I3
sg11
F0.2182190088060145
sg12
I01
sg13
I2
sssg16
I3
sg17
(dp1754
I0
(dp1755
g20
g23
sg24
I0
ssI1
(dp1756
g20
g23
sg24
I1
ssI2
(dp1757
g20
g28
sg24
I2
ssI3
(dp1758
g20
g31
sg24
I3
sssg32
(lp1759
I2
asg34
F78.82741928100586
sg35
(lp1760
I0
aI1
asa(dp1761
g4
g1012
sg6
(dp1762
I0
(dp1763
g9
I0
sg10
I0
sg11
F-0.8529817720691666
sg12
I01
sg13
I2
ssI1
(dp1764
g9
I1
sg10
I1
sg11
F0.472139721084744
sg12
I01
sg13
I2
ssI2
(dp1765
g9
I2
sg10
I3
sg11
F0.6842432169483152
sg12
I01
sg13
I2
sssg16
I3
sg17
(dp1766
I0
(dp1767
g20
g23
sg24
I0
ssI1
(dp1768
g20
g23
sg24
I1
ssI2
(dp1769
g20
g28
sg24
I2
ssI3
(dp1770
g20
g31
sg24
I3
sssg32
g1022
sg34
F78.82741928100586
sg35
g1023
sa(dp1771
g4
g469
sg6
(dp1772
I0
(dp1773
g9
I0
sg10
I0
sg11
F0.13997809150998908
sg12
I01
sg13
I2
ssI1
(dp1774
g9
I1
sg10
I1
sg11
F-0.5332924773789128
sg12
I01
sg13
I2
ssI2
(dp1775
g9
I2
sg10
I3
sg11
F-0.6234885603065954
sg12
I01
sg13
I2
sssg16
I3
sg17
(dp1776
I0
(dp1777
g20
g23
sg24
I0
ssI1
(dp1778
g20
g23
sg24
I1
ssI2
(dp1779
g20
g28
sg24
I2
ssI3
(dp1780
g20
g31
sg24
I3
sssg32
g479
sg34
F78.82741928100586
sg35
g480
sa(dp1781
g4
g585
sg6
(dp1782
I0
(dp1783
g9
I0
sg10
I0
sg11
F0.18419396512079492
sg12
I01
sg13
I2
ssI1
(dp1784
g9
I1
sg10
I1
sg11
F-0.49913560262370105
sg12
I01
sg13
I2
ssI2
(dp1785
g9
I2
sg10
I3
sg11
F0.0887761179665762
sg12
I01
sg13
I2
sssg16
I3
sg17
(dp1786
I0
(dp1787
g20
g23
sg24
I0
ssI1
(dp1788
g20
g23
sg24
I1
ssI2
(dp1789
g20
g28
sg24
I2
ssI3
(dp1790
g20
g31
sg24
I3
sssg32
g595
sg34
F78.82741928100586
sg35
g596
sa(dp1791
g4
(lp1792
I3
asg6
(dp1793
I0
(dp1794
g9
I0
sg10
I0
sg11
F0.6949598611641459
sg12
I01
sg13
I2
ssI1
(dp1795
g9
I1
sg10
I1
sg11
F0.20150437493972578
sg12
I01
sg13
I2
ssI2
(dp1796
g9
I2
sg10
I3
sg11
F-0.4221589473984186
sg12
I01
sg13
I2
sssg16
I3
sg17
(dp1797
I0
(dp1798
g20
g23
sg24
I0
ssI1
(dp1799
g20
g23
sg24
I1
ssI2
(dp1800
g20
g28
sg24
I2
ssI3
(dp1801
g20
g31
sg24
I3
sssg32
(lp1802
I2
asg34
F78.82741928100586
sg35
(lp1803
I0
aI1
asa(dp1804
g4
g1749
sg6
(dp1805
I0
(dp1806
g9
I0
sg10
I0
sg11
F0.49486212641802885
sg12
I01
sg13
I2
ssI1
(dp1807
g9
I1
sg10
I1
sg11
F0.6952278244399636
sg12
I01
sg13
I2
ssI2
(dp1808
g9
I2
sg10
I3
sg11
F0.2494112317490358
sg12
I01
sg13
I2
sssg16
I3
sg17
(dp1809
I0
(dp1810
g20
g23
sg24
I0
ssI1
(dp1811
g20
g23
sg24
I1
ssI2
(dp1812
g20
g28
sg24
I2
ssI3
(dp1813
g20
g31
sg24
I3
sssg32
g1759
sg34
F78.82741928100586
sg35
g1760
sa(dp1814
g4
g870
sg6
(dp1815
I0
(dp1816
g9
I0
sg10
I0
sg11
F-0.33927933453849435
sg12
I01
sg13
I2
ssI1
(dp1817
g9
I1
sg10
I1
sg11
F-0.8437189123566783
sg12
I01
sg13
I2
ssI2
(dp1818
g9
I2
sg10
I3
sg11
F-0.16629645631318066
sg12
I01
sg13
I2
sssg16
I3
sg17
(dp1819
I0
(dp1820
g20
g23
sg24
I0
ssI1
(dp1821
g20
g23
sg24
I1
ssI2
(dp1822
g20
g28
sg24
I2
ssI3
(dp1823
g20
g31
sg24
I3
sssg32
g880
sg34
F78.82741928100586
sg35
g881
sa(dp1824
g4
g1104
sg6
(dp1825
I0
(dp1826
g9
I0
sg10
I0
sg11
F-0.2206008142366601
sg12
I01
sg13
I2
ssI1
(dp1827
g9
I1
sg10
I1
sg11
F0.9082640459419701
sg12
I01
sg13
I2
ssI2
(dp1828
g9
I2
sg10
I3
sg11
F0.5285243843575317
sg12
I01
sg13
I2
sssg16
I3
sg17
(dp1829
I0
(dp1830
g20
g23
sg24
I0
ssI1
(dp1831
g20
g23
sg24
I1
ssI2
(dp1832
g20
g28
sg24
I2
ssI3
(dp1833
g20
g31
sg24
I3
sssg32
g1114
sg34
F78.82741928100586
sg35
g1115
sa(dp1834
g4
g183
sg6
(dp1835
I0
(dp1836
g9
I0
sg10
I0
sg11
F0.3140605558104864
sg12
I01
sg13
I2
ssI1
(dp1837
g9
I1
sg10
I1
sg11
F0.6757110881494781
sg12
I01
sg13
I2
ssI2
(dp1838
g9
I2
sg10
I3
sg11
F-0.906605568191523
sg12
I01
sg13
I2
sssg16
I3
sg17
(dp1839
I0
(dp1840
g20
g23
sg24
I0
ssI1
(dp1841
g20
g23
sg24
I1
ssI2
(dp1842
g20
g28
sg24
I2
ssI3
(dp1843
g20
g31
sg24
I3
sssg32
g193
sg34
F78.82741928100586
sg35
g194
sa(dp1844
g4
g55
sg6
(dp1845
I0
(dp1846
g9
I0
sg10
I0
sg11
F-0.6709365692845859
sg12
I01
sg13
I2
ssI1
(dp1847
g9
I1
sg10
I1
sg11
F-0.49817876833437663
sg12
I01
sg13
I2
ssI2
(dp1848
g9
I2
sg10
I3
sg11
F-0.2062923401699336
sg12
I01
sg13
I2
sssg16
I3
sg17
(dp1849
I0
(dp1850
g20
g23
sg24
I0
ssI1
(dp1851
g20
g23
sg24
I1
ssI2
(dp1852
g20
g28
sg24
I2
ssI3
(dp1853
g20
g31
sg24
I3
sssg32
g65
sg34
F78.82741928100586
sg35
g66
sa(dp1854
g4
(lp1855
I3
asg6
(dp1856
I0
(dp1857
g9
I0
sg10
I0
sg11
F-0.40006399044422436
sg12
I01
sg13
I2
ssI1
(dp1858
g9
I1
sg10
I1
sg11
F-0.5975647986548878
sg12
I01
sg13
I2
ssI2
(dp1859
g9
I2
sg10
I3
sg11
F-0.16027176102387056
sg12
I01
sg13
I2
sssg16
I3
sg17
(dp1860
I0
(dp1861
g20
g23
sg24
I0
ssI1
(dp1862
g20
g23
sg24
I1
ssI2
(dp1863
g20
g28
sg24
I2
ssI3
(dp1864
g20
g31
sg24
I3
sssg32
(lp1865
I2
asg34
F78.82741928100586
sg35
(lp1866
I0
aI1
asa(dp1867
g4
g1484
sg6
(dp1868
I0
(dp1869
g9
I0
sg10
I0
sg11
F0.6910329734262796
sg12
I01
sg13
I2
ssI1
(dp1870
g9
I1
sg10
I1
sg11
F0.7616014459422005
sg12
I01
sg13
I2
ssI2
(dp1871
g9
I2
sg10
I3
sg11
F0.04459221399553567
sg12
I01
sg13
I2
sssg16
I3
sg17
(dp1872
I0
(dp1873
g20
g23
sg24
I0
ssI1
(dp1874
g20
g23
sg24
I1
ssI2
(dp1875
g20
g28
sg24
I2
ssI3
(dp1876
g20
g31
sg24
I3
sssg32
g1494
sg34
F78.82741928100586
sg35
g1495
sa(dp1877
g4
g196
sg6
(dp1878
I0
(dp1879
g9
I0
sg10
I0
sg11
F-0.6046751250146304
sg12
I01
sg13
I2
ssI1
(dp1880
g9
I1
sg10
I1
sg11
F0.48360744581903686
sg12
I01
sg13
I2
ssI2
(dp1881
g9
I2
sg10
I3
sg11
F0.577229136819632
sg12
I01
sg13
I2
sssg16
I3
sg17
(dp1882
I0
(dp1883
g20
g23
sg24
I0
ssI1
(dp1884
g20
g23
sg24
I1
ssI2
(dp1885
g20
g28
sg24
I2
ssI3
(dp1886
g20
g31
sg24
I3
sssg32
g206
sg34
F78.82741928100586
sg35
g207
sa(dp1887
g4
g956
sg6
(dp1888
I0
(dp1889
g9
I0
sg10
I0
sg11
F0.6701923691965309
sg12
I01
sg13
I2
ssI1
(dp1890
g9
I1
sg10
I1
sg11
F0.2483879299418973
sg12
I01
sg13
I2
ssI2
(dp1891
g9
I2
sg10
I3
sg11
F0.44546200805182
sg12
I01
sg13
I2
sssg16
I3
sg17
(dp1892
I0
(dp1893
g20
g23
sg24
I0
ssI1
(dp1894
g20
g23
sg24
I1
ssI2
(dp1895
g20
g28
sg24
I2
ssI3
(dp1896
g20
g31
sg24
I3
sssg32
g966
sg34
F78.82741928100586
sg35
g967
sa(dp1897
g4
g130
sg6
(dp1898
I0
(dp1899
g9
I0
sg10
I0
sg11
F0.2289558573282805
sg12
I01
sg13
I2
ssI1
(dp1900
g9
I1
sg10
I1
sg11
F0.06469064892508052
sg12
I01
sg13
I2
ssI2
(dp1901
g9
I2
sg10
I3
sg11
F0.5990901537068366
sg12
I01
sg13
I2
sssg16
I3
sg17
(dp1902
I0
(dp1903
g20
g23
sg24
I0
ssI1
(dp1904
g20
g23
sg24
I1
ssI2
(dp1905
g20
g28
sg24
I2
ssI3
(dp1906
g20
g31
sg24
I3
sssg32
g140
sg34
F78.82741928100586
sg35
g141
sa(dp1907
g4
(lp1908
I3
asg6
(dp1909
I0
(dp1910
g9
I0
sg10
I0
sg11
F-0.01301851067899917
sg12
I01
sg13
I2
ssI1
(dp1911
g9
I1
sg10
I1
sg11
F0.06665439694124949
sg12
I01
sg13
I2
ssI2
(dp1912
g9
I2
sg10
I3
sg11
F-0.5356462329683528
sg12
I01
sg13
I2
sssg16
I3
sg17
(dp1913
I0
(dp1914
g20
g23
sg24
I0
ssI1
(dp1915
g20
g23
sg24
I1
ssI2
(dp1916
g20
g28
sg24
I2
ssI3
(dp1917
g20
g31
sg24
I3
sssg32
(lp1918
I2
asg34
F78.82741928100586
sg35
(lp1919
I0
aI1
asa(dp1920
g4
g1908
sg6
(dp1921
I0
(dp1922
g9
I0
sg10
I0
sg11
F-0.8214660762019514
sg12
I01
sg13
I2
ssI1
(dp1923
g9
I1
sg10
I1
sg11
F-0.49311217294859844
sg12
I01
sg13
I2
ssI2
(dp1924
g9
I2
sg10
I3
sg11
F0.128683022694706
sg12
I01
sg13
I2
sssg16
I3
sg17
(dp1925
I0
(dp1926
g20
g23
sg24
I0
ssI1
(dp1927
g20
g23
sg24
I1
ssI2
(dp1928
g20
g28
sg24
I2
ssI3
(dp1929
g20
g31
sg24
I3
sssg32
g1918
sg34
F78.82741928100586
sg35
g1919
sa(dp1930
g4
g117
sg6
(dp1931
I0
(dp1932
g9
I0
sg10
I0
sg11
F-0.7009537793671692
sg12
I01
sg13
I2
ssI1
(dp1933
g9
I1
sg10
I1
sg11
F0.19316311772709163
sg12
I01
sg13
I2
ssI2
(dp1934
g9
I2
sg10
I3
sg11
F-0.49018227515699964
sg12
I01
sg13
I2
sssg16
I3
sg17
(dp1935
I0
(dp1936
g20
g23
sg24
I0
ssI1
(dp1937
g20
g23
sg24
I1
ssI2
(dp1938
g20
g28
sg24
I2
ssI3
(dp1939
g20
g31
sg24
I3
sssg32
g127
sg34
F78.82741928100586
sg35
g128
sa(dp1940
g4
g544
sg6
(dp1941
I0
(dp1942
g9
I0
sg10
I0
sg11
F-0.49451546700917703
sg12
I01
sg13
I2
ssI1
(dp1943
g9
I1
sg10
I1
sg11
F-0.18729835862692376
sg12
I01
sg13
I2
ssI2
(dp1944
g9
I2
sg10
I3
sg11
F-0.636536858323661
sg12
I01
sg13
I2
sssg16
I3
sg17
(dp1945
I0
(dp1946
g20
g23
sg24
I0
ssI1
(dp1947
g20
g23
sg24
I1
ssI2
(dp1948
g20
g28
sg24
I2
ssI3
(dp1949
g20
g31
sg24
I3
sssg32
g554
sg34
F78.82741928100586
sg35
g555
sa(dp1950
g4
g55
sg6
(dp1951
I0
(dp1952
g9
I0
sg10
I0
sg11
F-0.7128881755167854
sg12
I01
sg13
I2
ssI1
(dp1953
g9
I1
sg10
I1
sg11
F-0.49182221903552675
sg12
I01
sg13
I2
ssI2
(dp1954
g9
I2
sg10
I3
sg11
F0.7409004147842961
sg12
I01
sg13
I2
sssg16
I3
sg17
(dp1955
I0
(dp1956
g20
g23
sg24
I0
ssI1
(dp1957
g20
g23
sg24
I1
ssI2
(dp1958
g20
g28
sg24
I2
ssI3
(dp1959
g20
g31
sg24
I3
sssg32
g65
sg34
F78.82741928100586
sg35
g66
sa(dp1960
g4
g667
sg6
(dp1961
I0
(dp1962
g9
I0
sg10
I0
sg11
F-0.06572842274882873
sg12
I01
sg13
I2
ssI1
(dp1963
g9
I1
sg10
I1
sg11
F-0.7979760008518989
sg12
I01
sg13
I2
ssI2
(dp1964
g9
I2
sg10
I3
sg11
F0.2644315077533546
sg12
I01
sg13
I2
sssg16
I3
sg17
(dp1965
I0
(dp1966
g20
g23
sg24
I0
ssI1
(dp1967
g20
g23
sg24
I1
ssI2
(dp1968
g20
g28
sg24
I2
ssI3
(dp1969
g20
g31
sg24
I3
sssg32
g677
sg34
F78.82741928100586
sg35
g678
sa(dp1970
g4
g1484
sg6
(dp1971
I0
(dp1972
g9
I0
sg10
I0
sg11
F0.5501853285759949
sg12
I01
sg13
I2
ssI1
(dp1973
g9
I1
sg10
I1
sg11
F-0.9559512994156742
sg12
I01
sg13
I2
ssI2
(dp1974
g9
I2
sg10
I3
sg11
F0.639097432992128
sg12
I01
sg13
I2
sssg16
I3
sg17
(dp1975
I0
(dp1976
g20
g23
sg24
I0
ssI1
(dp1977
g20
g23
sg24
I1
ssI2
(dp1978
g20
g28
sg24
I2
ssI3
(dp1979
g20
g31
sg24
I3
sssg32
g1494
sg34
F78.82741928100586
sg35
g1495
sa(dp1980
g4
g531
sg6
(dp1981
I0
(dp1982
g9
I0
sg10
I0
sg11
F0.9594883861882393
sg12
I01
sg13
I2
ssI1
(dp1983
g9
I1
sg10
I1
sg11
F0.7423404788252933
sg12
I01
sg13
I2
ssI2
(dp1984
g9
I2
sg10
I3
sg11
F0.48755977296813374
sg12
I01
sg13
I2
sssg16
I3
sg17
(dp1985
I0
(dp1986
g20
g23
sg24
I0
ssI1
(dp1987
g20
g23
sg24
I1
ssI2
(dp1988
g20
g28
sg24
I2
ssI3
(dp1989
g20
g31
sg24
I3
sssg32
g541
sg34
F78.82741928100586
sg35
g542
sa(dp1990
g4
g557
sg6
(dp1991
I0
(dp1992
g9
I0
sg10
I0
sg11
F0.5911126333966124
sg12
I01
sg13
I2
ssI1
(dp1993
g9
I1
sg10
I1
sg11
F-0.5148072036912692
sg12
I01
sg13
I2
ssI2
(dp1994
g9
I2
sg10
I3
sg11
F-0.15473584441137644
sg12
I01
sg13
I2
sssg16
I3
sg17
(dp1995
I0
(dp1996
g20
g23
sg24
I0
ssI1
(dp1997
g20
g23
sg24
I1
ssI2
(dp1998
g20
g28
sg24
I2
ssI3
(dp1999
g20
g31
sg24
I3
sssg32
g567
sg34
F78.82741928100586
sg35
g568
sa(dp2000
g4
g585
sg6
(dp2001
I0
(dp2002
g9
I0
sg10
I0
sg11
F0.1614806257015063
sg12
I01
sg13
I2
ssI1
(dp2003
g9
I1
sg10
I1
sg11
F-0.4558117900337585
sg12
I01
sg13
I2
ssI2
(dp2004
g9
I2
sg10
I3
sg11
F-0.5208181192487631
sg12
I01
sg13
I2
sssg16
I3
sg17
(dp2005
I0
(dp2006
g20
g23
sg24
I0
ssI1
(dp2007
g20
g23
sg24
I1
ssI2
(dp2008
g20
g28
sg24
I2
ssI3
(dp2009
g20
g31
sg24
I3
sssg32
g595
sg34
F78.82741928100586
sg35
g596
sa(dp2010
g4
g130
sg6
(dp2011
I0
(dp2012
g9
I0
sg10
I0
sg11
F0.8065815700220867
sg12
I01
sg13
I2
ssI1
(dp2013
g9
I1
sg10
I1
sg11
F0.610343117897152
sg12
I01
sg13
I2
ssI2
(dp2014
g9
I2
sg10
I3
sg11
F-0.6491994789102784
sg12
I01
sg13
I2
sssg16
I3
sg17
(dp2015
I0
(dp2016
g20
g23
sg24
I0
ssI1
(dp2017
g20
g23
sg24
I1
ssI2
(dp2018
g20
g28
sg24
I2
ssI3
(dp2019
g20
g31
sg24
I3
sssg32
g140
sg34
F78.82741928100586
sg35
g141
sa(dp2020
g4
g1071
sg6
(dp2021
I0
(dp2022
g9
I0
sg10
I0
sg11
F0.6853318741762967
sg12
I01
sg13
I2
ssI1
(dp2023
g9
I1
sg10
I1
sg11
F0.2367246485576096
sg12
I01
sg13
I2
ssI2
(dp2024
g9
I2
sg10
I3
sg11
F-0.6013888054262567
sg12
I01
sg13
I2
sssg16
I3
sg17
(dp2025
I0
(dp2026
g20
g23
sg24
I0
ssI1
(dp2027
g20
g23
sg24
I1
ssI2
(dp2028
g20
g28
sg24
I2
ssI3
(dp2029
g20
g31
sg24
I3
sssg32
g1081
sg34
F78.82741928100586
sg35
g1082
sa(dp2030
g4
g291
sg6
(dp2031
I0
(dp2032
g9
I0
sg10
I0
sg11
F-0.12076705997648353
sg12
I01
sg13
I2
ssI1
(dp2033
g9
I1
sg10
I1
sg11
F-0.32571393164581464
sg12
I01
sg13
I2
ssI2
(dp2034
g9
I2
sg10
I3
sg11
F0.4137873881449475
sg12
I01
sg13
I2
sssg16
I3
sg17
(dp2035
I0
(dp2036
g20
g23
sg24
I0
ssI1
(dp2037
g20
g23
sg24
I1
ssI2
(dp2038
g20
g28
sg24
I2
ssI3
(dp2039
g20
g31
sg24
I3
sssg32
g301
sg34
F78.82741928100586
sg35
g302
sa(dp2040
g4
g495
sg6
(dp2041
I0
(dp2042
g9
I0
sg10
I0
sg11
F-0.6939671609829458
sg12
I01
sg13
I2
ssI1
(dp2043
g9
I1
sg10
I1
sg11
F0.5576726348877575
sg12
I01
sg13
I2
ssI2
(dp2044
g9
I2
sg10
I3
sg11
F0.2663748672700691
sg12
I01
sg13
I2
sssg16
I3
sg17
(dp2045
I0
(dp2046
g20
g23
sg24
I0
ssI1
(dp2047
g20
g23
sg24
I1
ssI2
(dp2048
g20
g28
sg24
I2
ssI3
(dp2049
g20
g31
sg24
I3
sssg32
g505
sg34
F78.82741928100586
sg35
g506
sa(dp2050
g4
g268
sg6
(dp2051
I0
(dp2052
g9
I0
sg10
I0
sg11
F-0.2291885253578194
sg12
I01
sg13
I2
ssI1
(dp2053
g9
I1
sg10
I1
sg11
F-0.5215062332338188
sg12
I01
sg13
I2
ssI2
(dp2054
g9
I2
sg10
I3
sg11
F0.5848503378099869
sg12
I01
sg13
I2
sssg16
I3
sg17
(dp2055
I0
(dp2056
g20
g23
sg24
I0
ssI1
(dp2057
g20
g23
sg24
I1
ssI2
(dp2058
g20
g28
sg24
I2
ssI3
(dp2059
g20
g31
sg24
I3
sssg32
g278
sg34
F78.82741928100586
sg35
g279
sa(dp2060
g4
g1252
sg6
(dp2061
I0
(dp2062
g9
I0
sg10
I0
sg11
F0.04540279196811903
sg12
I01
sg13
I2
ssI1
(dp2063
g9
I1
sg10
I1
sg11
F-0.24175233318364336
sg12
I01
sg13
I2
ssI2
(dp2064
g9
I2
sg10
I3
sg11
F0.32175584750472513
sg12
I01
sg13
I2
sssg16
I3
sg17
(dp2065
I0
(dp2066
g20
g23
sg24
I0
ssI1
(dp2067
g20
g23
sg24
I1
ssI2
(dp2068
g20
g28
sg24
I2
ssI3
(dp2069
g20
g31
sg24
I3
sssg32
g1262
sg34
F78.82741928100586
sg35
g1263
sa(dp2070
g4
g726
sg6
(dp2071
I0
(dp2072
g9
I0
sg10
I0
sg11
F-0.21718205657598375
sg12
I01
sg13
I2
ssI1
(dp2073
g9
I1
sg10
I1
sg11
F-0.42476232039333606
sg12
I01
sg13
I2
ssI2
(dp2074
g9
I2
sg10
I3
sg11
F0.5256961253214553
sg12
I01
sg13
I2
sssg16
I3
sg17
(dp2075
I0
(dp2076
g20
g23
sg24
I0
ssI1
(dp2077
g20
g23
sg24
I1
ssI2
(dp2078
g20
g28
sg24
I2
ssI3
(dp2079
g20
g31
sg24
I3
sssg32
g736
sg34
F78.82741928100586
sg35
g737
sa(dp2080
g4
g557
sg6
(dp2081
I0
(dp2082
g9
I0
sg10
I0
sg11
F0.4151749494543686
sg12
I01
sg13
I2
ssI1
(dp2083
g9
I1
sg10
I1
sg11
F0.546100186821099
sg12
I01
sg13
I2
ssI2
(dp2084
g9
I2
sg10
I3
sg11
F0.7385064247297671
sg12
I01
sg13
I2
sssg16
I3
sg17
(dp2085
I0
(dp2086
g20
g23
sg24
I0
ssI1
(dp2087
g20
g23
sg24
I1
ssI2
(dp2088
g20
g28
sg24
I2
ssI3
(dp2089
g20
g31
sg24
I3
sssg32
g567
sg34
F78.82741928100586
sg35
g568
sa(dp2090
g4
g837
sg6
(dp2091
I0
(dp2092
g9
I0
sg10
I0
sg11
F0.5998464596623498
sg12
I01
sg13
I2
ssI1
(dp2093
g9
I1
sg10
I1
sg11
F-0.9892031035524563
sg12
I01
sg13
I2
ssI2
(dp2094
g9
I2
sg10
I3
sg11
F-0.600356738658967
sg12
I01
sg13
I2
sssg16
I3
sg17
(dp2095
I0
(dp2096
g20
g23
sg24
I0
ssI1
(dp2097
g20
g23
sg24
I1
ssI2
(dp2098
g20
g28
sg24
I2
ssI3
(dp2099
g20
g31
sg24
I3
sssg32
g847
sg34
F78.82741928100586
sg35
g848
sa(dp2100
g4
(lp2101
I3
asg6
(dp2102
I0
(dp2103
g9
I0
sg10
I0
sg11
F-0.6648087267284138
sg12
I01
sg13
I2
ssI1
(dp2104
g9
I1
sg10
I1
sg11
F-0.2796665930342699
sg12
I01
sg13
I2
ssI2
(dp2105
g9
I2
sg10
I3
sg11
F-0.24256372995402575
sg12
I01
sg13
I2
sssg16
I3
sg17
(dp2106
I0
(dp2107
g20
g23
sg24
I0
ssI1
(dp2108
g20
g23
sg24
I1
ssI2
(dp2109
g20
g28
sg24
I2
ssI3
(dp2110
g20
g31
sg24
I3
sssg32
(lp2111
I2
asg34
F78.82741928100586
sg35
(lp2112
I0
aI1
asa(dp2113
g4
g5
sg6
(dp2114
I0
(dp2115
g9
I0
sg10
I0
sg11
F0.12564071525343848
sg12
I01
sg13
I2
ssI1
(dp2116
g9
I1
sg10
I1
sg11
F-0.8795921414312619
sg12
I00
sg13
I2
ssI2
(dp2117
g9
I2
sg10
I3
sg11
F0.23119992015282703
sg12
I01
sg13
I2
ssI35
(dp2118
g9
I35
sg10
I1
sg11
F1.0
sg12
I01
sg13
I4
ssI36
(dp2119
g9
I36
sg10
I4
sg11
F-0.8795921414312619
sg12
I01
sg13
I2
sssg16
I4
sg17
(dp2120
I0
(dp2121
g20
g23
sg24
I0
ssI1
(dp2122
g20
g23
sg24
I1
ssI2
(dp2123
g20
g28
sg24
I2
ssI3
(dp2124
g20
g31
sg24
I3
ssI4
(dp2125
g20
g583
sg24
I4
sssg32
g33
sg34
F78.82741928100586
sg35
g36
sa(dp2126
g4
g1315
sg6
(dp2127
I0
(dp2128
g9
I0
sg10
I0
sg11
F-0.6033892830655232
sg12
I01
sg13
I2
ssI1
(dp2129
g9
I1
sg10
I1
sg11
F-0.7845772228579415
sg12
I01
sg13
I2
ssI2
(dp2130
g9
I2
sg10
I3
sg11
F0.41157273198025296
sg12
I01
sg13
I2
sssg16
I3
sg17
(dp2131
I0
(dp2132
g20
g23
sg24
I0
ssI1
(dp2133
g20
g23
sg24
I1
ssI2
(dp2134
g20
g28
sg24
I2
ssI3
(dp2135
g20
g31
sg24
I3
sssg32
g1325
sg34
F78.82741928100586
sg35
g1326
sa(dp2136
g4
g407
sg6
(dp2137
I0
(dp2138
g9
I0
sg10
I0
sg11
F-0.7488948168718697
sg12
I01
sg13
I2
ssI1
(dp2139
g9
I1
sg10
I1
sg11
F0.21743181748373452
sg12
I01
sg13
I2
ssI2
(dp2140
g9
I2
sg10
I3
sg11
F0.5332295565839202
sg12
I01
sg13
I2
sssg16
I3
sg17
(dp2141
I0
(dp2142
g20
g23
sg24
I0
ssI1
(dp2143
g20
g23
sg24
I1
ssI2
(dp2144
g20
g28
sg24
I2
ssI3
(dp2145
g20
g31
sg24
I3
sssg32
g417
sg34
F78.82741928100586
sg35
g418
sa(dp2146
g4
g456
sg6
(dp2147
I0
(dp2148
g9
I0
sg10
I0
sg11
F-0.8240588533808028
sg12
I01
sg13
I2
ssI1
(dp2149
g9
I1
sg10
I1
sg11
F0.9428015256588015
sg12
I01
sg13
I2
ssI2
(dp2150
g9
I2
sg10
I3
sg11
F-0.23196177194331713
sg12
I01
sg13
I2
sssg16
I3
sg17
(dp2151
I0
(dp2152
g20
g23
sg24
I0
ssI1
(dp2153
g20
g23
sg24
I1
ssI2
(dp2154
g20
g28
sg24
I2
ssI3
(dp2155
g20
g31
sg24
I3
sssg32
g466
sg34
F78.82741928100586
sg35
g467
sa(dp2156
g4
g1451
sg6
(dp2157
I0
(dp2158
g9
I0
sg10
I0
sg11
F0.18008999910193646
sg12
I01
sg13
I2
ssI1
(dp2159
g9
I1
sg10
I1
sg11
F0.22672819528361954
sg12
I01
sg13
I2
ssI2
(dp2160
g9
I2
sg10
I3
sg11
F-0.45320377591764205
sg12
I01
sg13
I2
sssg16
I3
sg17
(dp2161
I0
(dp2162
g20
g23
sg24
I0
ssI1
(dp2163
g20
g23
sg24
I1
ssI2
(dp2164
g20
g28
sg24
I2
ssI3
(dp2165
g20
g31
sg24
I3
sssg32
g1461
sg34
F78.82741928100586
sg35
g1462
sa(dp2166
g4
g469
sg6
(dp2167
I0
(dp2168
g9
I0
sg10
I0
sg11
F0.7734965083270454
sg12
I01
sg13
I2
ssI1
(dp2169
g9
I1
sg10
I1
sg11
F0.06278149127012891
sg12
I01
sg13
I2
ssI2
(dp2170
g9
I2
sg10
I3
sg11
F-0.8838804629017227
sg12
I01
sg13
I2
sssg16
I3
sg17
(dp2171
I0
(dp2172
g20
g23
sg24
I0
ssI1
(dp2173
g20
g23
sg24
I1
ssI2
(dp2174
g20
g28
sg24
I2
ssI3
(dp2175
g20
g31
sg24
I3
sssg32
g479
sg34
F78.82741928100586
sg35
g480
sa(dp2176
g4
g443
sg6
(dp2177
I0
(dp2178
g9
I0
sg10
I0
sg11
F0.4935944434863009
sg12
I01
sg13
I2
ssI1
(dp2179
g9
I1
sg10
I1
sg11
F-0.6751532075946538
sg12
I01
sg13
I2
ssI2
(dp2180
g9
I2
sg10
I3
sg11
F1.0140817734522933
sg12
I01
sg13
I2
sssg16
I3
sg17
(dp2181
I0
(dp2182
g20
g23
sg24
I0
ssI1
(dp2183
g20
g23
sg24
I1
ssI2
(dp2184
g20
g28
sg24
I2
ssI3
(dp2185
g20
g31
sg24
I3
sssg32
g453
sg34
F78.82741928100586
sg35
g454
sa(dp2186
g4
g130
sg6
(dp2187
I0
(dp2188
g9
I0
sg10
I0
sg11
F-0.24773798297137664
sg12
I01
sg13
I2
ssI1
(dp2189
g9
I1
sg10
I1
sg11
F0.18372972379973784
sg12
I01
sg13
I2
ssI2
(dp2190
g9
I2
sg10
I3
sg11
F-0.0061367517152846945
sg12
I01
sg13
I2
sssg16
I3
sg17
(dp2191
I0
(dp2192
g20
g23
sg24
I0
ssI1
(dp2193
g20
g23
sg24
I1
ssI2
(dp2194
g20
g28
sg24
I2
ssI3
(dp2195
g20
g31
sg24
I3
sssg32
g140
sg34
F78.82741928100586
sg35
g141
sa(dp2196
g4
g713
sg6
(dp2197
I0
(dp2198
g9
I0
sg10
I0
sg11
F-1.004933724320733
sg12
I01
sg13
I2
ssI1
(dp2199
g9
I1
sg10
I1
sg11
F-0.07359368076186464
sg12
I01
sg13
I2
ssI2
(dp2200
g9
I2
sg10
I3
sg11
F-0.520418009114253
sg12
I01
sg13
I2
sssg16
I3
sg17
(dp2201
I0
(dp2202
g20
g23
sg24
I0
ssI1
(dp2203
g20
g23
sg24
I1
ssI2
(dp2204
g20
g28
sg24
I2
ssI3
(dp2205
g20
g31
sg24
I3
sssg32
g723
sg34
F78.82741928100586
sg35
g724
sa(dp2206
g4
g544
sg6
(dp2207
I0
(dp2208
g9
I0
sg10
I0
sg11
F-0.3662654292712628
sg12
I01
sg13
I2
ssI1
(dp2209
g9
I1
sg10
I1
sg11
F0.18525980068195264
sg12
I01
sg13
I2
ssI2
(dp2210
g9
I2
sg10
I3
sg11
F0.8412720148487778
sg12
I01
sg13
I2
sssg16
I3
sg17
(dp2211
I0
(dp2212
g20
g23
sg24
I0
ssI1
(dp2213
g20
g23
sg24
I1
ssI2
(dp2214
g20
g28
sg24
I2
ssI3
(dp2215
g20
g31
sg24
I3
sssg32
g554
sg34
F78.82741928100586
sg35
g555
sa(dp2216
g4
g104
sg6
(dp2217
I0
(dp2218
g9
I0
sg10
I0
sg11
F-0.9298419797459135
sg12
I01
sg13
I2
ssI1
(dp2219
g9
I1
sg10
I1
sg11
F-0.6186007744958619
sg12
I01
sg13
I2
ssI2
(dp2220
g9
I2
sg10
I3
sg11
F0.46963815153565547
sg12
I01
sg13
I2
sssg16
I3
sg17
(dp2221
I0
(dp2222
g20
g23
sg24
I0
ssI1
(dp2223
g20
g23
sg24
I1
ssI2
(dp2224
g20
g28
sg24
I2
ssI3
(dp2225
g20
g31
sg24
I3
sssg32
g114
sg34
F78.82741928100586
sg35
g115
sa(dp2226
g4
g956
sg6
(dp2227
I0
(dp2228
g9
I0
sg10
I0
sg11
F0.2045913582465077
sg12
I01
sg13
I2
ssI1
(dp2229
g9
I1
sg10
I1
sg11
F0.423525061127104
sg12
I01
sg13
I2
ssI2
(dp2230
g9
I2
sg10
I3
sg11
F-0.9313826587360869
sg12
I01
sg13
I2
sssg16
I3
sg17
(dp2231
I0
(dp2232
g20
g23
sg24
I0
ssI1
(dp2233
g20
g23
sg24
I1
ssI2
(dp2234
g20
g28
sg24
I2
ssI3
(dp2235
g20
g31
sg24
I3
sssg32
g966
sg34
F78.82741928100586
sg35
g967
sa(dp2236
g4
g544
sg6
(dp2237
I0
(dp2238
g9
I0
sg10
I0
sg11
F0.14258587600029582
sg12
I01
sg13
I2
ssI1
(dp2239
g9
I1
sg10
I1
sg11
F-0.27922805285328817
sg12
I01
sg13
I2
ssI2
(dp2240
g9
I2
sg10
I3
sg11
F-0.5906813194189484
sg12
I01
sg13
I2
sssg16
I3
sg17
(dp2241
I0
(dp2242
g20
g23
sg24
I0
ssI1
(dp2243
g20
g23
sg24
I1
ssI2
(dp2244
g20
g28
sg24
I2
ssI3
(dp2245
g20
g31
sg24
I3
sssg32
g554
sg34
F78.82741928100586
sg35
g555
sa(dp2246
g4
g5
sg6
(dp2247
I0
(dp2248
g9
I0
sg10
I0
sg11
F-0.4358870405207931
sg12
I01
sg13
I2
ssI1
(dp2249
g9
I1
sg10
I1
sg11
F-0.9654377434036298
sg12
I01
sg13
I2
ssI2
(dp2250
g9
I2
sg10
I3
sg11
F0.2168287906924575
sg12
I01
sg13
I2
sssg16
I3
sg17
(dp2251
I0
(dp2252
g20
g23
sg24
I0
ssI1
(dp2253
g20
g23
sg24
I1
ssI2
(dp2254
g20
g28
sg24
I2
ssI3
(dp2255
g20
g31
sg24
I3
sssg32
g33
sg34
F78.82741928100586
sg35
g36
sa(dp2256
g4
g1012
sg6
(dp2257
I0
(dp2258
g9
I0
sg10
I0
sg11
F-0.8696922837299397
sg12
I01
sg13
I2
ssI1
(dp2259
g9
I1
sg10
I1
sg11
F0.4194915582514724
sg12
I01
sg13
I2
ssI2
(dp2260
g9
I2
sg10
I3
sg11
F0.6549001259958422
sg12
I01
sg13
I2
sssg16
I3
sg17
(dp2261
I0
(dp2262
g20
g23
sg24
I0
ssI1
(dp2263
g20
g23
sg24
I1
ssI2
(dp2264
g20
g28
sg24
I2
ssI3
(dp2265
g20
g31
sg24
I3
sssg32
g1022
sg34
F78.82741928100586
sg35
g1023
sa(dp2266
g4
g291
sg6
(dp2267
I0
(dp2268
g9
I0
sg10
I0
sg11
F0.6569169183075406
sg12
I01
sg13
I2
ssI1
(dp2269
g9
I1
sg10
I1
sg11
F0.6829236713916071
sg12
I01
sg13
I2
ssI2
(dp2270
g9
I2
sg10
I3
sg11
F0.04566036665223216
sg12
I01
sg13
I2
sssg16
I3
sg17
(dp2271
I0
(dp2272
g20
g23
sg24
I0
ssI1
(dp2273
g20
g23
sg24
I1
ssI2
(dp2274
g20
g28
sg24
I2
ssI3
(dp2275
g20
g31
sg24
I3
sssg32
g301
sg34
F78.82741928100586
sg35
g302
sa(dp2276
g4
g893
sg6
(dp2277
I0
(dp2278
g9
I0
sg10
I0
sg11
F-0.3358774051145306
sg12
I01
sg13
I2
ssI1
(dp2279
g9
I1
sg10
I1
sg11
F-0.0734740544835821
sg12
I01
sg13
I2
ssI2
(dp2280
g9
I2
sg10
I3
sg11
F-0.7291315232513365
sg12
I01
sg13
I2
sssg16
I3
sg17
(dp2281
I0
(dp2282
g20
g23
sg24
I0
ssI1
(dp2283
g20
g23
sg24
I1
ssI2
(dp2284
g20
g28
sg24
I2
ssI3
(dp2285
g20
g31
sg24
I3
sssg32
g903
sg34
F78.82741928100586
sg35
g904
sa(dp2286
g4
g1749
sg6
(dp2287
I0
(dp2288
g9
I0
sg10
I0
sg11
F0.6567148042870636
sg12
I01
sg13
I2
ssI1
(dp2289
g9
I1
sg10
I1
sg11
F-0.5709189639264735
sg12
I01
sg13
I2
ssI2
(dp2290
g9
I2
sg10
I3
sg11
F-0.2292896407114519
sg12
I01
sg13
I2
sssg16
I3
sg17
(dp2291
I0
(dp2292
g20
g23
sg24
I0
ssI1
(dp2293
g20
g23
sg24
I1
ssI2
(dp2294
g20
g28
sg24
I2
ssI3
(dp2295
g20
g31
sg24
I3
sssg32
g1759
sg34
F78.82741928100586
sg35
g1760
sa(dp2296
g4
g55
sg6
(dp2297
I0
(dp2298
g9
I0
sg10
I0
sg11
F0.148783356670022
sg12
I00
sg13
I2
ssI1
(dp2299
g9
I1
sg10
I1
sg11
F-0.42114138435772897
sg12
I01
sg13
I2
ssI2
(dp2300
g9
I2
sg10
I3
sg11
F0.8816005002169627
sg12
I01
sg13
I2
ssI37
(dp2301
g9
I37
sg10
I0
sg11
F1.0746195421051399
sg12
I01
sg13
I4
ssI38
(dp2302
g9
I38
sg10
I4
sg11
F0.13420535181326687
sg12
I01
sg13
I2
sssg16
I4
sg17
(dp2303
I0
(dp2304
g20
g23
sg24
I0
ssI1
(dp2305
g20
g23
sg24
I1
ssI2
(dp2306
g20
g28
sg24
I2
ssI3
(dp2307
g20
g31
sg24
I3
ssI4
(dp2308
g20
g583
sg24
I4
sssg32
g65
sg34
F78.82741928100586
sg35
g66
sa(dp2309
g4
g1315
sg6
(dp2310
I0
(dp2311
g9
I0
sg10
I0
sg11
F-0.7230632475626838
sg12
I01
sg13
I2
ssI1
(dp2312
g9
I1
sg10
I1
sg11
F-0.48376849973363073
sg12
I01
sg13
I2
ssI2
(dp2313
g9
I2
sg10
I3
sg11
F0.47736665395322087
sg12
I01
sg13
I2
sssg16
I3
sg17
(dp2314
I0
(dp2315
g20
g23
sg24
I0
ssI1
(dp2316
g20
g23
sg24
I1
ssI2
(dp2317
g20
g28
sg24
I2
ssI3
(dp2318
g20
g31
sg24
I3
sssg32
g1325
sg34
F78.82741928100586
sg35
g1326
sa(dp2319
g4
g42
sg6
(dp2320
I0
(dp2321
g9
I0
sg10
I0
sg11
F-0.41069955099341127
sg12
I01
sg13
I2
ssI1
(dp2322
g9
I1
sg10
I1
sg11
F-0.7330082945991775
sg12
I01
sg13
I2
ssI2
(dp2323
g9
I2
sg10
I3
sg11
F0.41513820524026185
sg12
I01
sg13
I2
sssg16
I3
sg17
(dp2324
I0
(dp2325
g20
g23
sg24
I0
ssI1
(dp2326
g20
g23
sg24
I1
ssI2
(dp2327
g20
g28
sg24
I2
ssI3
(dp2328
g20
g31
sg24
I3
sssg32
g52
sg34
F78.82741928100586
sg35
g53
sa(dp2329
g4
g117
sg6
(dp2330
I0
(dp2331
g9
I0
sg10
I0
sg11
F-0.23206531664375268
sg12
I01
sg13
I2
ssI1
(dp2332
g9
I1
sg10
I1
sg11
F-0.23956547685334595
sg12
I01
sg13
I2
ssI2
(dp2333
g9
I2
sg10
I3
sg11
F0.33490376494462293
sg12
I01
sg13
I2
sssg16
I3
sg17
(dp2334
I0
(dp2335
g20
g23
sg24
I0
ssI1
(dp2336
g20
g23
sg24
I1
ssI2
(dp2337
g20
g28
sg24
I2
ssI3
(dp2338
g20
g31
sg24
I3
sssg32
g127
sg34
F78.82741928100586
sg35
g128
sa(dp2339
g4
g557
sg6
(dp2340
I0
(dp2341
g9
I0
sg10
I0
sg11
F0.15049789347817036
sg12
I01
sg13
I2
ssI1
(dp2342
g9
I1
sg10
I1
sg11
F-0.9284675627634608
sg12
I01
sg13
I2
ssI2
(dp2343
g9
I2
sg10
I3
sg11
F-0.5552208116195374
sg12
I01
sg13
I2
sssg16
I3
sg17
(dp2344
I0
(dp2345
g20
g23
sg24
I0
ssI1
(dp2346
g20
g23
sg24
I1
ssI2
(dp2347
g20
g28
sg24
I2
ssI3
(dp2348
g20
g31
sg24
I3
sssg32
g567
sg34
F78.82741928100586
sg35
g568
sa(dp2349
g4
(lp2350
I3
asg6
(dp2351
I0
(dp2352
g9
I0
sg10
I0
sg11
F-0.6138321571619934
sg12
I01
sg13
I2
ssI1
(dp2353
g9
I1
sg10
I1
sg11
F1.1691113461340268
sg12
I01
sg13
I2
ssI2
(dp2354
g9
I2
sg10
I3
sg11
F0.03700805749322502
sg12
I01
sg13
I2
sssg16
I3
sg17
(dp2355
I0
(dp2356
g20
g23
sg24
I0
ssI1
(dp2357
g20
g23
sg24
I1
ssI2
(dp2358
g20
g28
sg24
I2
ssI3
(dp2359
g20
g31
sg24
I3
sssg32
(lp2360
I2
asg34
F78.82741928100586
sg35
(lp2361
I0
aI1
asa(dp2362
g4
g291
sg6
(dp2363
I0
(dp2364
g9
I0
sg10
I0
sg11
F0.7439708558961077
sg12
I01
sg13
I2
ssI1
(dp2365
g9
I1
sg10
I1
sg11
F0.6575039011193378
sg12
I01
sg13
I2
ssI2
(dp2366
g9
I2
sg10
I3
sg11
F0.30050737640269465
sg12
I01
sg13
I2
sssg16
I3
sg17
(dp2367
I0
(dp2368
g20
g23
sg24
I0
ssI1
(dp2369
g20
g23
sg24
I1
ssI2
(dp2370
g20
g28
sg24
I2
ssI3
(dp2371
g20
g31
sg24
I3
sssg32
g301
sg34
F78.82741928100586
sg35
g302
sa(dp2372
g4
g291
sg6
(dp2373
I0
(dp2374
g9
I0
sg10
I0
sg11
F-0.831289880559237
sg12
I01
sg13
I2
ssI1
(dp2375
g9
I1
sg10
I1
sg11
F0.6355013207948003
sg12
I01
sg13
I2
ssI2
(dp2376
g9
I2
sg10
I3
sg11
F0.9483444055458846
sg12
I01
sg13
I2
sssg16
I3
sg17
(dp2377
I0
(dp2378
g20
g23
sg24
I0
ssI1
(dp2379
g20
g23
sg24
I1
ssI2
(dp2380
g20
g28
sg24
I2
ssI3
(dp2381
g20
g31
sg24
I3
sssg32
g301
sg34
F78.82741928100586
sg35
g302
sa(dp2382
g4
g1749
sg6
(dp2383
I0
(dp2384
g9
I0
sg10
I0
sg11
F-0.5195790446260754
sg12
I01
sg13
I2
ssI1
(dp2385
g9
I1
sg10
I1
sg11
F0.85266557818422
sg12
I01
sg13
I2
ssI2
(dp2386
g9
I2
sg10
I3
sg11
F0.48994318713749957
sg12
I01
sg13
I2
sssg16
I3
sg17
(dp2387
I0
(dp2388
g20
g23
sg24
I0
ssI1
(dp2389
g20
g23
sg24
I1
ssI2
(dp2390
g20
g28
sg24
I2
ssI3
(dp2391
g20
g31
sg24
I3
sssg32
g1759
sg34
F78.82741928100586
sg35
g1760
sa(dp2392
g4
g518
sg6
(dp2393
I0
(dp2394
g9
I0
sg10
I0
sg11
F-0.25508532510443604
sg12
I01
sg13
I2
ssI1
(dp2395
g9
I1
sg10
I1
sg11
F0.9821949975663985
sg12
I01
sg13
I2
ssI2
(dp2396
g9
I2
sg10
I3
sg11
F-0.9993436274809723
sg12
I01
sg13
I2
sssg16
I3
sg17
(dp2397
I0
(dp2398
g20
g23
sg24
I0
ssI1
(dp2399
g20
g23
sg24
I1
ssI2
(dp2400
g20
g28
sg24
I2
ssI3
(dp2401
g20
g31
sg24
I3
sssg32
g528
sg34
F78.82741928100586
sg35
g529
sa(dp2402
g4
g469
sg6
(dp2403
I0
(dp2404
g9
I0
sg10
I0
sg11
F-0.45482277387923475
sg12
I01
sg13
I2
ssI1
(dp2405
g9
I1
sg10
I1
sg11
F-0.39435919175660966
sg12
I01
sg13
I2
ssI2
(dp2406
g9
I2
sg10
I3
sg11
F-0.8726173774949413
sg12
I01
sg13
I2
sssg16
I3
sg17
(dp2407
I0
(dp2408
g20
g23
sg24
I0
ssI1
(dp2409
g20
g23
sg24
I1
ssI2
(dp2410
g20
g28
sg24
I2
ssI3
(dp2411
g20
g31
sg24
I3
sssg32
g479
sg34
F78.82741928100586
sg35
g480
sa(dp2412
g4
g1025
sg6
(dp2413
I0
(dp2414
g9
I0
sg10
I0
sg11
F0.13984851845050097
sg12
I01
sg13
I2
ssI1
(dp2415
g9
I1
sg10
I1
sg11
F-0.0927478061476691
sg12
I01
sg13
I2
ssI2
(dp2416
g9
I2
sg10
I3
sg11
F0.8430005738559356
sg12
I01
sg13
I2
sssg16
I3
sg17
(dp2417
I0
(dp2418
g20
g23
sg24
I0
ssI1
(dp2419
g20
g23
sg24
I1
ssI2
(dp2420
g20
g28
sg24
I2
ssI3
(dp2421
g20
g31
sg24
I3
sssg32
g1035
sg34
F78.82741928100586
sg35
g1036
sa(dp2422
g4
g291
sg6
(dp2423
I0
(dp2424
g9
I0
sg10
I0
sg11
F0.7387951179096583
sg12
I01
sg13
I2
ssI1
(dp2425
g9
I1
sg10
I1
sg11
F0.6447351336911287
sg12
I01
sg13
I2
ssI2
(dp2426
g9
I2
sg10
I3
sg11
F0.7084577544910045
sg12
I01
sg13
I2
sssg16
I3
sg17
(dp2427
I0
(dp2428
g20
g23
sg24
I0
ssI1
(dp2429
g20
g23
sg24
I1
ssI2
(dp2430
g20
g28
sg24
I2
ssI3
(dp2431
g20
g31
sg24
I3
sssg32
g301
sg34
F78.82741928100586
sg35
g302
sa(dp2432
g4
g1484
sg6
(dp2433
I0
(dp2434
g9
I0
sg10
I0
sg11
F0.6751057920154095
sg12
I01
sg13
I2
ssI1
(dp2435
g9
I1
sg10
I1
sg11
F0.46994652489043787
sg12
I01
sg13
I2
ssI2
(dp2436
g9
I2
sg10
I3
sg11
F0.5885445937510007
sg12
I01
sg13
I2
sssg16
I3
sg17
(dp2437
I0
(dp2438
g20
g23
sg24
I0
ssI1
(dp2439
g20
g23
sg24
I1
ssI2
(dp2440
g20
g28
sg24
I2
ssI3
(dp2441
g20
g31
sg24
I3
sssg32
g1494
sg34
F78.82741928100586
sg35
g1495
sa(dp2442
g4
g469
sg6
(dp2443
I0
(dp2444
g9
I0
sg10
I0
sg11
F0.23395876600143817
sg12
I01
sg13
I2
ssI1
(dp2445
g9
I1
sg10
I1
sg11
F0.1346629284232446
sg12
I01
sg13
I2
ssI2
(dp2446
g9
I2
sg10
I3
sg11
F-0.8045294378517467
sg12
I01
sg13
I2
sssg16
I3
sg17
(dp2447
I0
(dp2448
g20
g23
sg24
I0
ssI1
(dp2449
g20
g23
sg24
I1
ssI2
(dp2450
g20
g28
sg24
I2
ssI3
(dp2451
g20
g31
sg24
I3
sssg32
g479
sg34
F78.82741928100586
sg35
g480
sa(dp2452
g4
(lp2453
I3
asg6
(dp2454
I0
(dp2455
g9
I0
sg10
I0
sg11
F-0.8934174997565067
sg12
I01
sg13
I2
ssI1
(dp2456
g9
I1
sg10
I1
sg11
F-0.3930285959306799
sg12
I01
sg13
I2
ssI2
(dp2457
g9
I2
sg10
I3
sg11
F-0.24279146100748294
sg12
I01
sg13
I2
sssg16
I3
sg17
(dp2458
I0
(dp2459
g20
g23
sg24
I0
ssI1
(dp2460
g20
g23
sg24
I1
ssI2
(dp2461
g20
g28
sg24
I2
ssI3
(dp2462
g20
g31
sg24
I3
sssg32
(lp2463
I2
asg34
F78.82741928100586
sg35
(lp2464
I0
aI1
asa(dp2465
g4
g557
sg6
(dp2466
I0
(dp2467
g9
I0
sg10
I0
sg11
F-0.32125101925454735
sg12
I01
sg13
I2
ssI1
(dp2468
g9
I1
sg10
I1
sg11
F0.5073868376184952
sg12
I01
sg13
I2
ssI2
(dp2469
g9
I2
sg10
I3
sg11
F-0.5118852489920049
sg12
I01
sg13
I2
sssg16
I3
sg17
(dp2470
I0
(dp2471
g20
g23
sg24
I0
ssI1
(dp2472
g20
g23
sg24
I1
ssI2
(dp2473
g20
g28
sg24
I2
ssI3
(dp2474
g20
g31
sg24
I3
sssg32
g567
sg34
F78.82741928100586
sg35
g568
sa(dp2475
g4
g531
sg6
(dp2476
I0
(dp2477
g9
I0
sg10
I0
sg11
F0.037379181587174404
sg12
I01
sg13
I2
ssI1
(dp2478
g9
I1
sg10
I1
sg11
F-0.08259292469707624
sg12
I01
sg13
I2
ssI2
(dp2479
g9
I2
sg10
I3
sg11
F-0.46612175639818987
sg12
I01
sg13
I2
sssg16
I3
sg17
(dp2480
I0
(dp2481
g20
g23
sg24
I0
ssI1
(dp2482
g20
g23
sg24
I1
ssI2
(dp2483
g20
g28
sg24
I2
ssI3
(dp2484
g20
g31
sg24
I3
sssg32
g541
sg34
F78.82741928100586
sg35
g542
sa(dp2485
g4
g1315
sg6
(dp2486
I0
(dp2487
g9
I0
sg10
I0
sg11
F-0.01336296739418042
sg12
I01
sg13
I2
ssI1
(dp2488
g9
I1
sg10
I1
sg11
F-0.07622617180983153
sg12
I01
sg13
I2
ssI2
(dp2489
g9
I2
sg10
I3
sg11
F-0.3649025740470295
sg12
I01
sg13
I2
sssg16
I3
sg17
(dp2490
I0
(dp2491
g20
g23
sg24
I0
ssI1
(dp2492
g20
g23
sg24
I1
ssI2
(dp2493
g20
g28
sg24
I2
ssI3
(dp2494
g20
g31
sg24
I3
sssg32
g1325
sg34
F78.82741928100586
sg35
g1326
sa(dp2495
g4
g2350
sg6
(dp2496
I0
(dp2497
g9
I0
sg10
I0
sg11
F0.3048316150935646
sg12
I01
sg13
I2
ssI1
(dp2498
g9
I1
sg10
I1
sg11
F1.1158910339344899
sg12
I01
sg13
I2
ssI2
(dp2499
g9
I2
sg10
I3
sg11
F-0.6296258721631903
sg12
I01
sg13
I2
sssg16
I3
sg17
(dp2500
I0
(dp2501
g20
g23
sg24
I0
ssI1
(dp2502
g20
g23
sg24
I1
ssI2
(dp2503
g20
g28
sg24
I2
ssI3
(dp2504
g20
g31
sg24
I3
sssg32
g2360
sg34
F78.82741928100586
sg35
g2361
sa(dp2505
g4
(lp2506
I3
asg6
(dp2507
I0
(dp2508
g9
I0
sg10
I0
sg11
F-0.31951616804473
sg12
I01
sg13
I2
ssI1
(dp2509
g9
I1
sg10
I1
sg11
F0.22744007479433367
sg12
I01
sg13
I2
ssI2
(dp2510
g9
I2
sg10
I3
sg11
F-0.5346151668142473
sg12
I01
sg13
I2
sssg16
I3
sg17
(dp2511
I0
(dp2512
g20
g23
sg24
I0
ssI1
(dp2513
g20
g23
sg24
I1
ssI2
(dp2514
g20
g28
sg24
I2
ssI3
(dp2515
g20
g31
sg24
I3
sssg32
(lp2516
I2
asg34
F78.82741928100586
sg35
(lp2517
I0
aI1
asa(dp2518
g4
g956
sg6
(dp2519
I0
(dp2520
g9
I0
sg10
I0
sg11
F-0.2177267605263235
sg12
I01
sg13
I2
ssI1
(dp2521
g9
I1
sg10
I1
sg11
F0.48942834255994583
sg12
I01
sg13
I2
ssI2
(dp2522
g9
I2
sg10
I3
sg11
F0.9713643946371611
sg12
I01
sg13
I2
sssg16
I3
sg17
(dp2523
I0
(dp2524
g20
g23
sg24
I0
ssI1
(dp2525
g20
g23
sg24
I1
ssI2
(dp2526
g20
g28
sg24
I2
ssI3
(dp2527
g20
g31
sg24
I3
sssg32
g966
sg34
F78.82741928100586
sg35
g967
sa(dp2528
g4
g1908
sg6
(dp2529
I0
(dp2530
g9
I0
sg10
I0
sg11
F0.5153218133832211
sg12
I01
sg13
I2
ssI1
(dp2531
g9
I1
sg10
I1
sg11
F-0.5321381547945998
sg12
I01
sg13
I2
ssI2
(dp2532
g9
I2
sg10
I3
sg11
F0.6001199459126133
sg12
I01
sg13
I2
sssg16
I3
sg17
(dp2533
I0
(dp2534
g20
g23
sg24
I0
ssI1
(dp2535
g20
g23
sg24
I1
ssI2
(dp2536
g20
g28
sg24
I2
ssI3
(dp2537
g20
g31
sg24
I3
sssg32
g1918
sg34
F78.82741928100586
sg35
g1919
sa(dp2538
g4
g713
sg6
(dp2539
I0
(dp2540
g9
I0
sg10
I0
sg11
F-0.37236850737878086
sg12
I01
sg13
I2
ssI1
(dp2541
g9
I1
sg10
I1
sg11
F-0.2242388971910938
sg12
I01
sg13
I2
ssI2
(dp2542
g9
I2
sg10
I3
sg11
F0.1005898703882194
sg12
I01
sg13
I2
sssg16
I3
sg17
(dp2543
I0
(dp2544
g20
g23
sg24
I0
ssI1
(dp2545
g20
g23
sg24
I1
ssI2
(dp2546
g20
g28
sg24
I2
ssI3
(dp2547
g20
g31
sg24
I3
sssg32
g723
sg34
F78.82741928100586
sg35
g724
sa(dp2548
g4
g1749
sg6
(dp2549
I0
(dp2550
g9
I0
sg10
I0
sg11
F0.20980049658321853
sg12
I01
sg13
I2
ssI1
(dp2551
g9
I1
sg10
I1
sg11
F0.7491103487329042
sg12
I01
sg13
I2
ssI2
(dp2552
g9
I2
sg10
I3
sg11
F0.263585609023284
sg12
I01
sg13
I2
sssg16
I3
sg17
(dp2553
I0
(dp2554
g20
g23
sg24
I0
ssI1
(dp2555
g20
g23
sg24
I1
ssI2
(dp2556
g20
g28
sg24
I2
ssI3
(dp2557
g20
g31
sg24
I3
sssg32
g1759
sg34
F78.82741928100586
sg35
g1760
sa(dp2558
g4
g1025
sg6
(dp2559
I0
(dp2560
g9
I0
sg10
I0
sg11
F0.5511675890183177
sg12
I01
sg13
I2
ssI1
(dp2561
g9
I1
sg10
I1
sg11
F-0.06866504632331039
sg12
I01
sg13
I2
ssI2
(dp2562
g9
I2
sg10
I3
sg11
F0.7791303549903377
sg12
I01
sg13
I2
sssg16
I3
sg17
(dp2563
I0
(dp2564
g20
g23
sg24
I0
ssI1
(dp2565
g20
g23
sg24
I1
ssI2
(dp2566
g20
g28
sg24
I2
ssI3
(dp2567
g20
g31
sg24
I3
sssg32
g1035
sg34
F78.82741928100586
sg35
g1036
sa(dp2568
g4
(lp2569
I3
asg6
(dp2570
I0
(dp2571
g9
I0
sg10
I0
sg11
F0.664695729534386
sg12
I01
sg13
I2
ssI1
(dp2572
g9
I1
sg10
I1
sg11
F0.7523553545341166
sg12
I01
sg13
I2
ssI2
(dp2573
g9
I2
sg10
I3
sg11
F0.37657810822615156
sg12
I01
sg13
I2
sssg16
I3
sg17
(dp2574
I0
(dp2575
g20
g23
sg24
I0
ssI1
(dp2576
g20
g23
sg24
I1
ssI2
(dp2577
g20
g28
sg24
I2
ssI3
(dp2578
g20
g31
sg24
I3
sssg32
(lp2579
I2
asg34
F78.82741928100586
sg35
(lp2580
I0
aI1
asa(dp2581
g4
(lp2582
I3
asg6
(dp2583
I0
(dp2584
g9
I0
sg10
I0
sg11
F-0.837117881753045
sg12
I01
sg13
I2
ssI1
(dp2585
g9
I1
sg10
I1
sg11
F0.9135781424202053
sg12
I01
sg13
I2
ssI2
(dp2586
g9
I2
sg10
I3
sg11
F-0.22077766822763556
sg12
I01
sg13
I2
sssg16
I3
sg17
(dp2587
I0
(dp2588
g20
g23
sg24
I0
ssI1
(dp2589
g20
g23
sg24
I1
ssI2
(dp2590
g20
g28
sg24
I2
ssI3
(dp2591
g20
g31
sg24
I3
sssg32
(lp2592
I2
asg34
F78.82741928100586
sg35
(lp2593
I0
aI1
asa(dp2594
g4
g667
sg6
(dp2595
I0
(dp2596
g9
I0
sg10
I0
sg11
F0.15433436004547185
sg12
I01
sg13
I2
ssI1
(dp2597
g9
I1
sg10
I1
sg11
F0.3470929862339158
sg12
I01
sg13
I2
ssI2
(dp2598
g9
I2
sg10
I3
sg11
F0.2775922585562186
sg12
I01
sg13
I2
sssg16
I3
sg17
(dp2599
I0
(dp2600
g20
g23
sg24
I0
ssI1
(dp2601
g20
g23
sg24
I1
ssI2
(dp2602
g20
g28
sg24
I2
ssI3
(dp2603
g20
g31
sg24
I3
sssg32
g677
sg34
F78.82741928100586
sg35
g678
sa(dp2604
g4
g585
sg6
(dp2605
I0
(dp2606
g9
I0
sg10
I0
sg11
F-0.8616323930356954
sg12
I01
sg13
I2
ssI1
(dp2607
g9
I1
sg10
I1
sg11
F0.47521596027854
sg12
I01
sg13
I2
ssI2
(dp2608
g9
I2
sg10
I3
sg11
F1.045543087432282
sg12
I01
sg13
I2
sssg16
I3
sg17
(dp2609
I0
(dp2610
g20
g23
sg24
I0
ssI1
(dp2611
g20
g23
sg24
I1
ssI2
(dp2612
g20
g28
sg24
I2
ssI3
(dp2613
g20
g31
sg24
I3
sssg32
g595
sg34
F78.82741928100586
sg35
g596
sa(dp2614
g4
g713
sg6
(dp2615
I0
(dp2616
g9
I0
sg10
I0
sg11
F-0.36142153966436813
sg12
I01
sg13
I2
ssI1
(dp2617
g9
I1
sg10
I1
sg11
F0.6068386232833531
sg12
I01
sg13
I2
ssI2
(dp2618
g9
I2
sg10
I3
sg11
F-0.6859525567930115
sg12
I01
sg13
I2
sssg16
I3
sg17
(dp2619
I0
(dp2620
g20
g23
sg24
I0
ssI1
(dp2621
g20
g23
sg24
I1
ssI2
(dp2622
g20
g28
sg24
I2
ssI3
(dp2623
g20
g31
sg24
I3
sssg32
g723
sg34
F78.82741928100586
sg35
g724
sa(dp2624
g4
(lp2625
I3
asg6
(dp2626
I0
(dp2627
g9
I0
sg10
I0
sg11
F-0.5337767370590526
sg12
I01
sg13
I2
ssI1
(dp2628
g9
I1
sg10
I1
sg11
F-0.8241873435314503
sg12
I01
sg13
I2
ssI2
(dp2629
g9
I2
sg10
I3
sg11
F-0.014135801039217424
sg12
I01
sg13
I2
sssg16
I3
sg17
(dp2630
I0
(dp2631
g20
g23
sg24
I0
ssI1
(dp2632
g20
g23
sg24
I1
ssI2
(dp2633
g20
g28
sg24
I2
ssI3
(dp2634
g20
g31
sg24
I3
sssg32
(lp2635
I2
asg34
F78.82741928100586
sg35
(lp2636
I0
aI1
asa(dp2637
g4
g1749
sg6
(dp2638
I0
(dp2639
g9
I0
sg10
I0
sg11
F-0.9337408241607376
sg12
I01
sg13
I2
ssI1
(dp2640
g9
I1
sg10
I1
sg11
F0.35449798517396247
sg12
I01
sg13
I2
ssI2
(dp2641
g9
I2
sg10
I3
sg11
F-0.22351401207043894
sg12
I01
sg13
I2
sssg16
I3
sg17
(dp2642
I0
(dp2643
g20
g23
sg24
I0
ssI1
(dp2644
g20
g23
sg24
I1
ssI2
(dp2645
g20
g28
sg24
I2
ssI3
(dp2646
g20
g31
sg24
I3
sssg32
g1759
sg34
F78.82741928100586
sg35
g1760
sa(dp2647
g4
g1484
sg6
(dp2648
I0
(dp2649
g9
I0
sg10
I0
sg11
F0.7551259084659794
sg12
I01
sg13
I2
ssI1
(dp2650
g9
I1
sg10
I1
sg11
F0.4959703643235176
sg12
I01
sg13
I2
ssI2
(dp2651
g9
I2
sg10
I3
sg11
F0.5535273349318139
sg12
I01
sg13
I2
sssg16
I3
sg17
(dp2652
I0
(dp2653
g20
g23
sg24
I0
ssI1
(dp2654
g20
g23
sg24
I1
ssI2
(dp2655
g20
g28
sg24
I2
ssI3
(dp2656
g20
g31
sg24
I3
sssg32
g1494
sg34
F78.82741928100586
sg35
g1495
sa(dp2657
g4
g979
sg6
(dp2658
I0
(dp2659
g9
I0
sg10
I0
sg11
F0.14566454737570192
sg12
I01
sg13
I2
ssI1
(dp2660
g9
I1
sg10
I1
sg11
F-0.9158494586456725
sg12
I01
sg13
I2
ssI2
(dp2661
g9
I2
sg10
I3
sg11
F-0.3039932451128036
sg12
I01
sg13
I2
sssg16
I3
sg17
(dp2662
I0
(dp2663
g20
g23
sg24
I0
ssI1
(dp2664
g20
g23
sg24
I1
ssI2
(dp2665
g20
g28
sg24
I2
ssI3
(dp2666
g20
g31
sg24
I3
sssg32
g989
sg34
F78.82741928100586
sg35
g990
sa(dp2667
g4
g752
sg6
(dp2668
I0
(dp2669
g9
I0
sg10
I0
sg11
F0.28932653760601806
sg12
I01
sg13
I2
ssI1
(dp2670
g9
I1
sg10
I1
sg11
F-0.1525145190830186
sg12
I01
sg13
I2
ssI2
(dp2671
g9
I2
sg10
I3
sg11
F-0.032716699477093686
sg12
I00
sg13
I2
ssI13
(dp2672
g9
I13
sg10
I3
sg11
F1.179317853299733
sg12
I01
sg13
I4
ssI14
(dp2673
g9
I14
sg10
I4
sg11
F-0.03398914025359264
sg12
I01
sg13
I2
sssg16
I4
sg17
(dp2674
I0
(dp2675
g20
g23
sg24
I0
ssI1
(dp2676
g20
g23
sg24
I1
ssI2
(dp2677
g20
g28
sg24
I2
ssI3
(dp2678
g20
g31
sg24
I3
ssI4
(dp2679
g20
g583
sg24
I4
sssg32
g765
sg34
F78.82741928100586
sg35
g766
sa(dp2680
g4
g956
sg6
(dp2681
I0
(dp2682
g9
I0
sg10
I0
sg11
F0.9711298123559081
sg12
I01
sg13
I2
ssI1
(dp2683
g9
I1
sg10
I1
sg11
F0.05807323212551364
sg12
I01
sg13
I2
ssI2
(dp2684
g9
I2
sg10
I3
sg11
F0.40399472194764424
sg12
I01
sg13
I2
sssg16
I3
sg17
(dp2685
I0
(dp2686
g20
g23
sg24
I0
ssI1
(dp2687
g20
g23
sg24
I1
ssI2
(dp2688
g20
g28
sg24
I2
ssI3
(dp2689
g20
g31
sg24
I3
sssg32
g966
sg34
F78.82741928100586
sg35
g967
sa(dp2690
g4
g407
sg6
(dp2691
I0
(dp2692
g9
I0
sg10
I0
sg11
F0.7096330282539178
sg12
I01
sg13
I2
ssI1
(dp2693
g9
I1
sg10
I1
sg11
F-0.07889478346376066
sg12
I01
sg13
I2
ssI2
(dp2694
g9
I2
sg10
I3
sg11
F0.10169059738283938
sg12
I01
sg13
I2
sssg16
I3
sg17
(dp2695
I0
(dp2696
g20
g23
sg24
I0
ssI1
(dp2697
g20
g23
sg24
I1
ssI2
(dp2698
g20
g28
sg24
I2
ssI3
(dp2699
g20
g31
sg24
I3
sssg32
g417
sg34
F78.82741928100586
sg35
g418
sa(dp2700
g4
g1252
sg6
(dp2701
I0
(dp2702
g9
I0
sg10
I0
sg11
F0.4010955735955482
sg12
I01
sg13
I2
ssI1
(dp2703
g9
I1
sg10
I1
sg11
F-0.23588070336725983
sg12
I01
sg13
I2
ssI2
(dp2704
g9
I2
sg10
I3
sg11
F0.9526316451362437
sg12
I01
sg13
I2
sssg16
I3
sg17
(dp2705
I0
(dp2706
g20
g23
sg24
I0
ssI1
(dp2707
g20
g23
sg24
I1
ssI2
(dp2708
g20
g28
sg24
I2
ssI3
(dp2709
g20
g31
sg24
I3
sssg32
g1262
sg34
F78.82741928100586
sg35
g1263
sa(dp2710
g4
g1143
sg6
(dp2711
I0
(dp2712
g9
I0
sg10
I0
sg11
F0.2166047069962969
sg12
I01
sg13
I2
ssI1
(dp2713
g9
I1
sg10
I1
sg11
F-0.4978902316995737
sg12
I01
sg13
I2
ssI2
(dp2714
g9
I2
sg10
I3
sg11
F0.5845055946254851
sg12
I01
sg13
I2
sssg16
I3
sg17
(dp2715
I0
(dp2716
g20
g23
sg24
I0
ssI1
(dp2717
g20
g23
sg24
I1
ssI2
(dp2718
g20
g28
sg24
I2
ssI3
(dp2719
g20
g31
sg24
I3
sssg32
g1156
sg34
F78.82741928100586
sg35
g1157
sa(dp2720
g4
g531
sg6
(dp2721
I0
(dp2722
g9
I0
sg10
I0
sg11
F0.03749143048631033
sg12
I01
sg13
I2
ssI1
(dp2723
g9
I1
sg10
I1
sg11
F0.7331035641362743
sg12
I01
sg13
I2
ssI2
(dp2724
g9
I2
sg10
I3
sg11
F-0.3100434186659707
sg12
I01
sg13
I2
sssg16
I3
sg17
(dp2725
I0
(dp2726
g20
g23
sg24
I0
ssI1
(dp2727
g20
g23
sg24
I1
ssI2
(dp2728
g20
g28
sg24
I2
ssI3
(dp2729
g20
g31
sg24
I3
sssg32
g541
sg34
F78.82741928100586
sg35
g542
sa(dp2730
g4
(lp2731
I3
asg6
(dp2732
I0
(dp2733
g9
I0
sg10
I0
sg11
F-0.0354189691571003
sg12
I01
sg13
I2
ssI1
(dp2734
g9
I1
sg10
I1
sg11
F-0.8309261607178096
sg12
I01
sg13
I2
ssI2
(dp2735
g9
I2
sg10
I3
sg11
F-0.938211903937219
sg12
I01
sg13
I2
sssg16
I3
sg17
(dp2736
I0
(dp2737
g20
g23
sg24
I0
ssI1
(dp2738
g20
g23
sg24
I1
ssI2
(dp2739
g20
g28
sg24
I2
ssI3
(dp2740
g20
g31
sg24
I3
sssg32
(lp2741
I2
asg34
F78.82741928100586
sg35
(lp2742
I0
aI1
asa(dp2743
g4
g5
sg6
(dp2744
I0
(dp2745
g9
I0
sg10
I0
sg11
F-0.5439811100187645
sg12
I01
sg13
I2
ssI1
(dp2746
g9
I1
sg10
I1
sg11
F-0.8046536148629614
sg12
I01
sg13
I2
ssI2
(dp2747
g9
I2
sg10
I3
sg11
F-0.987267106035884
sg12
I01
sg13
I2
sssg16
I3
sg17
(dp2748
I0
(dp2749
g20
g23
sg24
I0
ssI1
(dp2750
g20
g23
sg24
I1
ssI2
(dp2751
g20
g28
sg24
I2
ssI3
(dp2752
g20
g31
sg24
I3
sssg32
g33
sg34
F78.82741928100586
sg35
g36
sa(dp2753
g4
g1012
sg6
(dp2754
I0
(dp2755
g9
I0
sg10
I0
sg11
F0.7878047712688238
sg12
I01
sg13
I2
ssI1
(dp2756
g9
I1
sg10
I1
sg11
F0.6450719545699074
sg12
I01
sg13
I2
ssI2
(dp2757
g9
I2
sg10
I3
sg11
F-0.6619337597111178
sg12
I01
sg13
I2
sssg16
I3
sg17
(dp2758
I0
(dp2759
g20
g23
sg24
I0
ssI1
(dp2760
g20
g23
sg24
I1
ssI2
(dp2761
g20
g28
sg24
I2
ssI3
(dp2762
g20
g31
sg24
I3
sssg32
g1022
sg34
F78.82741928100586
sg35
g1023
sa(dp2763
g4
g1071
sg6
(dp2764
I0
(dp2765
g9
I0
sg10
I0
sg11
F-0.21616883575240997
sg12
I01
sg13
I2
ssI1
(dp2766
g9
I1
sg10
I1
sg11
F-0.4305856772290494
sg12
I01
sg13
I2
ssI2
(dp2767
g9
I2
sg10
I3
sg11
F-0.6305258931500591
sg12
I01
sg13
I2
sssg16
I3
sg17
(dp2768
I0
(dp2769
g20
g23
sg24
I0
ssI1
(dp2770
g20
g23
sg24
I1
ssI2
(dp2771
g20
g28
sg24
I2
ssI3
(dp2772
g20
g31
sg24
I3
sssg32
g1081
sg34
F78.82741928100586
sg35
g1082
sa(dp2773
g4
g5
sg6
(dp2774
I0
(dp2775
g9
I0
sg10
I0
sg11
F0.1357999164319059
sg12
I01
sg13
I2
ssI1
(dp2776
g9
I1
sg10
I1
sg11
F-0.30858917041003964
sg12
I00
sg13
I2
ssI2
(dp2777
g9
I2
sg10
I3
sg11
F0.233765494030138
sg12
I01
sg13
I2
ssI40
(dp2778
g9
I40
sg10
I4
sg11
F0.29044985522459843
sg12
I01
sg13
I2
ssI39
(dp2779
g9
I39
sg10
I1
sg11
F1.0949166184450136
sg12
I01
sg13
I4
sssg16
I4
sg17
(dp2780
I0
(dp2781
g20
g23
sg24
I0
ssI1
(dp2782
g20
g23
sg24
I1
ssI2
(dp2783
g20
g28
sg24
I2
ssI3
(dp2784
g20
g31
sg24
I3
ssI4
(dp2785
g20
g583
sg24
I4
sssg32
g33
sg34
F78.82741928100586
sg35
g36
sa(dp2786
g4
(lp2787
I3
asg6
(dp2788
I0
(dp2789
g9
I0
sg10
I0
sg11
F-0.22096003371515774
sg12
I01
sg13
I2
ssI1
(dp2790
g9
I1
sg10
I1
sg11
F0.7364129372271243
sg12
I01
sg13
I2
ssI2
(dp2791
g9
I2
sg10
I3
sg11
F0.0476862665629925
sg12
I01
sg13
I2
sssg16
I3
sg17
(dp2792
I0
(dp2793
g20
g23
sg24
I0
ssI1
(dp2794
g20
g23
sg24
I1
ssI2
(dp2795
g20
g28
sg24
I2
ssI3
(dp2796
g20
g31
sg24
I3
sssg32
(lp2797
I2
asg34
F78.82741928100586
sg35
(lp2798
I0
aI1
asa(dp2799
g4
g2453
sg6
(dp2800
I0
(dp2801
g9
I0
sg10
I0
sg11
F0.3298419739789209
sg12
I01
sg13
I2
ssI1
(dp2802
g9
I1
sg10
I1
sg11
F-0.3806530279956256
sg12
I01
sg13
I2
ssI2
(dp2803
g9
I2
sg10
I3
sg11
F-0.818138569479919
sg12
I01
sg13
I2
sssg16
I3
sg17
(dp2804
I0
(dp2805
g20
g23
sg24
I0
ssI1
(dp2806
g20
g23
sg24
I1
ssI2
(dp2807
g20
g28
sg24
I2
ssI3
(dp2808
g20
g31
sg24
I3
sssg32
g2463
sg34
F78.82741928100586
sg35
g2464
sa(dp2809
g4
g291
sg6
(dp2810
I0
(dp2811
g9
I0
sg10
I0
sg11
F0.7045419497500105
sg12
I01
sg13
I2
ssI1
(dp2812
g9
I1
sg10
I1
sg11
F0.49956699923440806
sg12
I01
sg13
I2
ssI2
(dp2813
g9
I2
sg10
I3
sg11
F0.05036832054485808
sg12
I01
sg13
I2
sssg16
I3
sg17
(dp2814
I0
(dp2815
g20
g23
sg24
I0
ssI1
(dp2816
g20
g23
sg24
I1
ssI2
(dp2817
g20
g28
sg24
I2
ssI3
(dp2818
g20
g31
sg24
I3
sssg32
g301
sg34
F78.82741928100586
sg35
g302
sa(dp2819
g4
(lp2820
I3
asg6
(dp2821
I0
(dp2822
g9
I0
sg10
I0
sg11
F0.15783572166732387
sg12
I01
sg13
I2
ssI1
(dp2823
g9
I1
sg10
I1
sg11
F-0.09024147994507836
sg12
I01
sg13
I2
ssI2
(dp2824
g9
I2
sg10
I3
sg11
F-0.42560704019671136
sg12
I01
sg13
I2
sssg16
I3
sg17
(dp2825
I0
(dp2826
g20
g23
sg24
I0
ssI1
(dp2827
g20
g23
sg24
I1
ssI2
(dp2828
g20
g28
sg24
I2
ssI3
(dp2829
g20
g31
sg24
I3
sssg32
(lp2830
I2
asg34
F78.82741928100586
sg35
(lp2831
I0
aI1
asa(dp2832
g4
g557
sg6
(dp2833
I0
(dp2834
g9
I0
sg10
I0
sg11
F-0.19460534617721437
sg12
I01
sg13
I2
ssI1
(dp2835
g9
I1
sg10
I1
sg11
F0.6890747635151098
sg12
I01
sg13
I2
ssI2
(dp2836
g9
I2
sg10
I3
sg11
F-0.07353101870255085
sg12
I01
sg13
I2
sssg16
I3
sg17
(dp2837
I0
(dp2838
g20
g23
sg24
I0
ssI1
(dp2839
g20
g23
sg24
I1
ssI2
(dp2840
g20
g28
sg24
I2
ssI3
(dp2841
g20
g31
sg24
I3
sssg32
g567
sg34
F78.82741928100586
sg35
g568
sa(dp2842
g4
g544
sg6
(dp2843
I0
(dp2844
g9
I0
sg10
I0
sg11
F0.6534707720083835
sg12
I01
sg13
I2
ssI1
(dp2845
g9
I1
sg10
I1
sg11
F0.39502224143805975
sg12
I01
sg13
I2
ssI2
(dp2846
g9
I2
sg10
I3
sg11
F-0.534857898118708
sg12
I01
sg13
I2
sssg16
I3
sg17
(dp2847
I0
(dp2848
g20
g23
sg24
I0
ssI1
(dp2849
g20
g23
sg24
I1
ssI2
(dp2850
g20
g28
sg24
I2
ssI3
(dp2851
g20
g31
sg24
I3
sssg32
g554
sg34
F78.82741928100586
sg35
g555
sa(dp2852
g4
g2820
sg6
(dp2853
I0
(dp2854
g9
I0
sg10
I0
sg11
F0.15916674998191152
sg12
I01
sg13
I2
ssI1
(dp2855
g9
I1
sg10
I1
sg11
F-0.0841898992746728
sg12
I01
sg13
I2
ssI2
(dp2856
g9
I2
sg10
I3
sg11
F-0.3934332693806372
sg12
I01
sg13
I2
sssg16
I3
sg17
(dp2857
I0
(dp2858
g20
g23
sg24
I0
ssI1
(dp2859
g20
g23
sg24
I1
ssI2
(dp2860
g20
g28
sg24
I2
ssI3
(dp2861
g20
g31
sg24
I3
sssg32
g2830
sg34
F78.82741928100586
sg35
g2831
sa(dp2862
g4
g1252
sg6
(dp2863
I0
(dp2864
g9
I0
sg10
I0
sg11
F-0.5422825205071498
sg12
I01
sg13
I2
ssI1
(dp2865
g9
I1
sg10
I1
sg11
F-0.30472233356634343
sg12
I01
sg13
I2
ssI2
(dp2866
g9
I2
sg10
I3
sg11
F0.07249282807326071
sg12
I01
sg13
I2
sssg16
I3
sg17
(dp2867
I0
(dp2868
g20
g23
sg24
I0
ssI1
(dp2869
g20
g23
sg24
I1
ssI2
(dp2870
g20
g28
sg24
I2
ssI3
(dp2871
g20
g31
sg24
I3
sssg32
g1262
sg34
F78.82741928100586
sg35
g1263
sa(dp2872
g4
g1484
sg6
(dp2873
I0
(dp2874
g9
I0
sg10
I0
sg11
F0.7243005194002439
sg12
I01
sg13
I2
ssI1
(dp2875
g9
I1
sg10
I1
sg11
F0.13154922360442645
sg12
I01
sg13
I2
ssI2
(dp2876
g9
I2
sg10
I3
sg11
F0.5767550977661599
sg12
I01
sg13
I2
sssg16
I3
sg17
(dp2877
I0
(dp2878
g20
g23
sg24
I0
ssI1
(dp2879
g20
g23
sg24
I1
ssI2
(dp2880
g20
g28
sg24
I2
ssI3
(dp2881
g20
g31
sg24
I3
sssg32
g1494
sg34
F78.82741928100586
sg35
g1495
sa(dp2882
g4
g130
sg6
(dp2883
I0
(dp2884
g9
I0
sg10
I0
sg11
F0.3349767787679941
sg12
I01
sg13
I2
ssI1
(dp2885
g9
I1
sg10
I1
sg11
F0.5196907548244855
sg12
I01
sg13
I2
ssI2
(dp2886
g9
I2
sg10
I3
sg11
F-0.6465519605711112
sg12
I01
sg13
I2
sssg16
I3
sg17
(dp2887
I0
(dp2888
g20
g23
sg24
I0
ssI1
(dp2889
g20
g23
sg24
I1
ssI2
(dp2890
g20
g28
sg24
I2
ssI3
(dp2891
g20
g31
sg24
I3
sssg32
g140
sg34
F78.82741928100586
sg35
g141
sa(dp2892
g4
g291
sg6
(dp2893
I0
(dp2894
g9
I0
sg10
I0
sg11
F0.6767629400482773
sg12
I01
sg13
I2
ssI1
(dp2895
g9
I1
sg10
I1
sg11
F0.6125660293092141
sg12
I01
sg13
I2
ssI2
(dp2896
g9
I2
sg10
I3
sg11
F0.044179008122122436
sg12
I01
sg13
I2
sssg16
I3
sg17
(dp2897
I0
(dp2898
g20
g23
sg24
I0
ssI1
(dp2899
g20
g23
sg24
I1
ssI2
(dp2900
g20
g28
sg24
I2
ssI3
(dp2901
g20
g31
sg24
I3
sssg32
g301
sg34
F78.82741928100586
sg35
g302
sa(dp2902
g4
g1058
sg6
(dp2903
I0
(dp2904
g9
I0
sg10
I0
sg11
F0.6538754681849978
sg12
I01
sg13
I2
ssI1
(dp2905
g9
I1
sg10
I1
sg11
F0.6252936253082999
sg12
I01
sg13
I2
ssI2
(dp2906
g9
I2
sg10
I3
sg11
F0.17827241795047827
sg12
I01
sg13
I2
sssg16
I3
sg17
(dp2907
I0
(dp2908
g20
g23
sg24
I0
ssI1
(dp2909
g20
g23
sg24
I1
ssI2
(dp2910
g20
g28
sg24
I2
ssI3
(dp2911
g20
g31
sg24
I3
sssg32
g1068
sg34
F78.82741928100586
sg35
g1069
sa(dp2912
g4
g713
sg6
(dp2913
I0
(dp2914
g9
I0
sg10
I0
sg11
F0.34662392019659827
sg12
I01
sg13
I2
ssI1
(dp2915
g9
I1
sg10
I1
sg11
F-0.0760734251929657
sg12
I01
sg13
I2
ssI2
(dp2916
g9
I2
sg10
I3
sg11
F-0.4631118285437885
sg12
I01
sg13
I2
sssg16
I3
sg17
(dp2917
I0
(dp2918
g20
g23
sg24
I0
ssI1
(dp2919
g20
g23
sg24
I1
ssI2
(dp2920
g20
g28
sg24
I2
ssI3
(dp2921
g20
g31
sg24
I3
sssg32
g723
sg34
F78.82741928100586
sg35
g724
sa(dp2922
g4
g2820
sg6
(dp2923
I0
(dp2924
g9
I0
sg10
I0
sg11
F0.14309832000405398
sg12
I01
sg13
I2
ssI1
(dp2925
g9
I1
sg10
I1
sg11
F-0.43769324249828057
sg12
I01
sg13
I2
ssI2
(dp2926
g9
I2
sg10
I3
sg11
F-0.43370663479277305
sg12
I01
sg13
I2
sssg16
I3
sg17
(dp2927
I0
(dp2928
g20
g23
sg24
I0
ssI1
(dp2929
g20
g23
sg24
I1
ssI2
(dp2930
g20
g28
sg24
I2
ssI3
(dp2931
g20
g31
sg24
I3
sssg32
g2830
sg34
F78.82741928100586
sg35
g2831
sa(dp2932
g4
(lp2933
I3
asg6
(dp2934
I0
(dp2935
g9
I0
sg10
I0
sg11
F0.37364151238673915
sg12
I01
sg13
I2
ssI1
(dp2936
g9
I1
sg10
I1
sg11
F-0.7134804262863573
sg12
I01
sg13
I2
ssI2
(dp2937
g9
I2
sg10
I3
sg11
F-0.6507952955948103
sg12
I01
sg13
I2
sssg16
I3
sg17
(dp2938
I0
(dp2939
g20
g23
sg24
I0
ssI1
(dp2940
g20
g23
sg24
I1
ssI2
(dp2941
g20
g28
sg24
I2
ssI3
(dp2942
g20
g31
sg24
I3
sssg32
(lp2943
I2
asg34
F78.82741928100586
sg35
(lp2944
I0
aI1
asa(dp2945
g4
g1749
sg6
(dp2946
I0
(dp2947
g9
I0
sg10
I0
sg11
F-1.0238517196167753
sg12
I01
sg13
I2
ssI1
(dp2948
g9
I1
sg10
I1
sg11
F-0.6049477482739551
sg12
I01
sg13
I2
ssI2
(dp2949
g9
I2
sg10
I3
sg11
F-0.22795001760757347
sg12
I01
sg13
I2
sssg16
I3
sg17
(dp2950
I0
(dp2951
g20
g23
sg24
I0
ssI1
(dp2952
g20
g23
sg24
I1
ssI2
(dp2953
g20
g28
sg24
I2
ssI3
(dp2954
g20
g31
sg24
I3
sssg32
g1759
sg34
F78.82741928100586
sg35
g1760
sa(dp2955
g4
g518
sg6
(dp2956
I0
(dp2957
g9
I0
sg10
I0
sg11
F0.6512964095329182
sg12
I01
sg13
I2
ssI1
(dp2958
g9
I1
sg10
I1
sg11
F0.06572892799586647
sg12
I01
sg13
I2
ssI2
(dp2959
g9
I2
sg10
I3
sg11
F-0.945549768217169
sg12
I01
sg13
I2
sssg16
I3
sg17
(dp2960
I0
(dp2961
g20
g23
sg24
I0
ssI1
(dp2962
g20
g23
sg24
I1
ssI2
(dp2963
g20
g28
sg24
I2
ssI3
(dp2964
g20
g31
sg24
I3
sssg32
g528
sg34
F78.82741928100586
sg35
g529
sa(dp2965
g4
g443
sg6
(dp2966
I0
(dp2967
g9
I0
sg10
I0
sg11
F-0.055263696764880924
sg12
I01
sg13
I2
ssI1
(dp2968
g9
I1
sg10
I1
sg11
F0.11389036158010898
sg12
I01
sg13
I2
ssI2
(dp2969
g9
I2
sg10
I3
sg11
F-0.7736017688224933
sg12
I01
sg13
I2
sssg16
I3
sg17
(dp2970
I0
(dp2971
g20
g23
sg24
I0
ssI1
(dp2972
g20
g23
sg24
I1
ssI2
(dp2973
g20
g28
sg24
I2
ssI3
(dp2974
g20
g31
sg24
I3
sssg32
g453
sg34
F78.82741928100586
sg35
g454
sa(dp2975
g4
g1484
sg6
(dp2976
I0
(dp2977
g9
I0
sg10
I0
sg11
F-0.8990636312348184
sg12
I01
sg13
I2
ssI1
(dp2978
g9
I1
sg10
I1
sg11
F-0.6513780923987933
sg12
I01
sg13
I2
ssI2
(dp2979
g9
I2
sg10
I3
sg11
F0.8269719660744329
sg12
I01
sg13
I2
sssg16
I3
sg17
(dp2980
I0
(dp2981
g20
g23
sg24
I0
ssI1
(dp2982
g20
g23
sg24
I1
ssI2
(dp2983
g20
g28
sg24
I2
ssI3
(dp2984
g20
g31
sg24
I3
sssg32
g1494
sg34
F78.82741928100586
sg35
g1495
sa(dp2985
g4
g956
sg6
(dp2986
I0
(dp2987
g9
I0
sg10
I0
sg11
F-0.7427376161081418
sg12
I01
sg13
I2
ssI1
(dp2988
g9
I1
sg10
I1
sg11
F-0.37778221473705376
sg12
I01
sg13
I2
ssI2
(dp2989
g9
I2
sg10
I3
sg11
F0.4767513327629389
sg12
I01
sg13
I2
sssg16
I3
sg17
(dp2990
I0
(dp2991
g20
g23
sg24
I0
ssI1
(dp2992
g20
g23
sg24
I1
ssI2
(dp2993
g20
g28
sg24
I2
ssI3
(dp2994
g20
g31
sg24
I3
sssg32
g966
sg34
F78.82741928100586
sg35
g967
sa(dp2995
g4
g2506
sg6
(dp2996
I0
(dp2997
g9
I0
sg10
I0
sg11
F-0.9225859286853108
sg12
I01
sg13
I2
ssI1
(dp2998
g9
I1
sg10
I1
sg11
F0.13891741548327308
sg12
I01
sg13
I2
ssI2
(dp2999
g9
I2
sg10
I3
sg11
F-0.5760998650011321
sg12
I01
sg13
I2
sssg16
I3
sg17
(dp3000
I0
(dp3001
g20
g23
sg24
I0
ssI1
(dp3002
g20
g23
sg24
I1
ssI2
(dp3003
g20
g28
sg24
I2
ssI3
(dp3004
g20
g31
sg24
I3
sssg32
g2516
sg34
F78.82741928100586
sg35
g2517
sa(dp3005
g4
g268
sg6
(dp3006
I0
(dp3007
g9
I0
sg10
I0
sg11
F0.7131033688446058
sg12
I01
sg13
I2
ssI1
(dp3008
g9
I1
sg10
I1
sg11
F0.05484850065582059
sg12
I01
sg13
I2
ssI2
(dp3009
g9
I2
sg10
I3
sg11
F0.4834888868366502
sg12
I01
sg13
I2
sssg16
I3
sg17
(dp3010
I0
(dp3011
g20
g23
sg24
I0
ssI1
(dp3012
g20
g23
sg24
I1
ssI2
(dp3013
g20
g28
sg24
I2
ssI3
(dp3014
g20
g31
sg24
I3
sssg32
g278
sg34
F78.82741928100586
sg35
g279
sa(dp3015
g4
(lp3016
I3
asg6
(dp3017
I0
(dp3018
g9
I0
sg10
I0
sg11
F0.29466055160101023
sg12
I01
sg13
I2
ssI1
(dp3019
g9
I1
sg10
I1
sg11
F-0.01801993091617964
sg12
I01
sg13
I2
ssI2
(dp3020
g9
I2
sg10
I3
sg11
F-0.2417401328583921
sg12
I01
sg13
I2
sssg16
I3
sg17
(dp3021
I0
(dp3022
g20
g23
sg24
I0
ssI1
(dp3023
g20
g23
sg24
I1
ssI2
(dp3024
g20
g28
sg24
I2
ssI3
(dp3025
g20
g31
sg24
I3
sssg32
(lp3026
I2
asg34
F78.82741928100586
sg35
(lp3027
I0
aI1
asa(dp3028
g4
g469
sg6
(dp3029
I0
(dp3030
g9
I0
sg10
I0
sg11
F-0.17897520579494564
sg12
I01
sg13
I2
ssI1
(dp3031
g9
I1
sg10
I1
sg11
F0.7857492892906747
sg12
I01
sg13
I2
ssI2
(dp3032
g9
I2
sg10
I3
sg11
F-0.6106930614448052
sg12
I01
sg13
I2
sssg16
I3
sg17
(dp3033
I0
(dp3034
g20
g23
sg24
I0
ssI1
(dp3035
g20
g23
sg24
I1
ssI2
(dp3036
g20
g28
sg24
I2
ssI3
(dp3037
g20
g31
sg24
I3
sssg32
g479
sg34
F78.82741928100586
sg35
g480
sa(dp3038
g4
g544
sg6
(dp3039
I0
(dp3040
g9
I0
sg10
I0
sg11
F0.6438642148185316
sg12
I01
sg13
I2
ssI1
(dp3041
g9
I1
sg10
I1
sg11
F1.065263672723378
sg12
I01
sg13
I2
ssI2
(dp3042
g9
I2
sg10
I3
sg11
F-0.49564492749796085
sg12
I01
sg13
I2
sssg16
I3
sg17
(dp3043
I0
(dp3044
g20
g23
sg24
I0
ssI1
(dp3045
g20
g23
sg24
I1
ssI2
(dp3046
g20
g28
sg24
I2
ssI3
(dp3047
g20
g31
sg24
I3
sssg32
g554
sg34
F78.82741928100586
sg35
g555
sa(dp3048
g4
g130
sg6
(dp3049
I0
(dp3050
g9
I0
sg10
I0
sg11
F0.30215395452601207
sg12
I01
sg13
I2
ssI1
(dp3051
g9
I1
sg10
I1
sg11
F0.6050152715725698
sg12
I01
sg13
I2
ssI2
(dp3052
g9
I2
sg10
I3
sg11
F-0.4665274172290148
sg12
I01
sg13
I2
sssg16
I3
sg17
(dp3053
I0
(dp3054
g20
g23
sg24
I0
ssI1
(dp3055
g20
g23
sg24
I1
ssI2
(dp3056
g20
g28
sg24
I2
ssI3
(dp3057
g20
g31
sg24
I3
sssg32
g140
sg34
F78.82741928100586
sg35
g141
sa(dp3058
g4
g68
sg6
(dp3059
I0
(dp3060
g9
I0
sg10
I0
sg11
F1.0134159158880414
sg12
I01
sg13
I2
ssI1
(dp3061
g9
I1
sg10
I1
sg11
F-0.5151339653501534
sg12
I01
sg13
I2
ssI2
(dp3062
g9
I2
sg10
I3
sg11
F-0.7841012440073192
sg12
I01
sg13
I2
sssg16
I3
sg17
(dp3063
I0
(dp3064
g20
g23
sg24
I0
ssI1
(dp3065
g20
g23
sg24
I1
ssI2
(dp3066
g20
g28
sg24
I2
ssI3
(dp3067
g20
g31
sg24
I3
sssg32
g78
sg34
F78.82741928100586
sg35
g79
sa(dp3068
g4
g781
sg6
(dp3069
I0
(dp3070
g9
I0
sg10
I0
sg11
F-0.01284547317859093
sg12
I01
sg13
I2
ssI1
(dp3071
g9
I1
sg10
I1
sg11
F0.05868414909018454
sg12
I01
sg13
I2
ssI2
(dp3072
g9
I2
sg10
I3
sg11
F-0.660019667636843
sg12
I01
sg13
I2
sssg16
I3
sg17
(dp3073
I0
(dp3074
g20
g23
sg24
I0
ssI1
(dp3075
g20
g23
sg24
I1
ssI2
(dp3076
g20
g28
sg24
I2
ssI3
(dp3077
g20
g31
sg24
I3
sssg32
g791
sg34
F78.82741928100586
sg35
g792
sa(dp3078
g4
g1792
sg6
(dp3079
I0
(dp3080
g9
I0
sg10
I0
sg11
F0.20624204458124432
sg12
I01
sg13
I2
ssI1
(dp3081
g9
I1
sg10
I1
sg11
F0.20416892360562777
sg12
I01
sg13
I2
ssI2
(dp3082
g9
I2
sg10
I3
sg11
F-0.7394076985227767
sg12
I01
sg13
I2
sssg16
I3
sg17
(dp3083
I0
(dp3084
g20
g23
sg24
I0
ssI1
(dp3085
g20
g23
sg24
I1
ssI2
(dp3086
g20
g28
sg24
I2
ssI3
(dp3087
g20
g31
sg24
I3
sssg32
g1802
sg34
F78.82741928100586
sg35
g1803
sa(dp3088
g4
g557
sg6
(dp3089
I0
(dp3090
g9
I0
sg10
I0
sg11
F-0.32856938117924384
sg12
I01
sg13
I2
ssI1
(dp3091
g9
I1
sg10
I1
sg11
F-0.4288380447778036
sg12
I01
sg13
I2
ssI2
(dp3092
g9
I2
sg10
I3
sg11
F-0.2673898905034314
sg12
I01
sg13
I2
sssg16
I3
sg17
(dp3093
I0
(dp3094
g20
g23
sg24
I0
ssI1
(dp3095
g20
g23
sg24
I1
ssI2
(dp3096
g20
g28
sg24
I2
ssI3
(dp3097
g20
g31
sg24
I3
sssg32
g567
sg34
F78.82741928100586
sg35
g568
sasS'stag_count'
p3098
I0
ss.